(lp1
(lp2
(lp3
cnumpy.core.multiarray
scalar
p4
(cnumpy
dtype
p5
(S'f8'
I0
I1
tRp6
(I3
S'<'
NNNI-1
I-1
I0
tbS'\xa4p=\nW5\x92@'
tRp7
accopy_reg
_reconstructor
p8
(cdiffpy.srmise.peaks.base
Peaks
p9
c__builtin__
list
p10
(lp11
g8
(cdiffpy.srmise.peaks.base
Peak
p12
c__builtin__
object
p13
NtRp14
(dp15
S'_owner'
p16
g8
(cdiffpy.srmise.peaks.terminationripples
TerminationRipples
p17
g13
NtRp18
(dp19
S'supersample'
p20
F5
sS'metadict'
p21
(dp22
g20
(F5
c__builtin__
repr
p23
tp24
sS'qmax'
p25
(F21.299999
g23
tp26
sS'extension'
p27
(F4
g23
tp28
ssg27
F4
sS'npars'
p29
I3
sg25
F21.299999
sS'base'
p30
g8
(cdiffpy.srmise.peaks.gaussianoverr
GaussianOverR
p31
g13
NtRp32
(dp33
g21
(dp34
S'maxwidth'
p35
(F0.69999999999999996
g23
tp36
ssg35
F0.69999999999999996
sg29
I3
sS'sigma2fwhm'
p37
g4
(g6
S'C\xfcJ\xe4\xab\xd6\x02@'
tRp38
sS'c3'
p39
g4
(g6
S'\x1d\x0b\xc2\x91\x0e\x08\xf1?'
tRp40
sg30
NsS'parformats'
p41
(lp42
S'internal'
p43
aS'pwa'
p44
aS'mu_sigma_area'
p45
asS'c2'
p46
g4
(g6
S'~\x85%\xe3\x17\x9f\xb6?'
tRp47
sS'parameterdict'
p48
(dp49
S'position'
p50
I0
sS'area'
p51
I2
sS'width'
p52
I1
ssS'default_formats'
p53
(dp54
S'default_output'
p55
g44
sS'default_input'
p56
g43
ssS'c1'
p57
g4
(g6
S'J\xf1$s<\xdc\xe0?'
tRp58
sS'c4'
p59
F2.2439947525641379
sbsg41
g42
sg48
g49
sg53
g54
sbsS'pars'
p60
cnumpy.core.multiarray
_reconstruct
p61
(cnumpy
ndarray
p62
(I0
tS'b'
tRp63
(I1
(I3
tg6
I00
S'\x8d\xcf\xc9\xdd)\x12\xf7?\xf4\x13R\x96A\xf4\xf2\xbf?M\x11i3}\xe1@'
tbsS'removable'
p64
I01
sS'free'
p65
g61
(g62
(I0
tS'b'
tRp66
(I1
(I3
tg5
(S'b1'
I0
I1
tRp67
(I3
S'|'
NNNI-1
I-1
I0
tbI00
S'\x01\x01\x01'
tbsS'static_owner'
p68
I00
sbag8
(g12
g13
NtRp69
(dp70
g16
g18
sg60
g61
(g62
(I0
tS'b'
tRp71
(I1
(I3
tg6
I00
S'\xe5\xe6"bj\xdb\xfd?]\x91\x10B8\xe2\xf7\xbf\xec\x14u\xb9\xe9\xea\xa4@'
tbsg64
I01
sg65
g61
(g62
(I0
tS'b'
tRp72
(I1
(I3
tg67
I00
S'\x01\x01\x01'
tbsg68
I00
sbag8
(g12
g13
NtRp73
(dp74
g16
g18
sg60
g61
(g62
(I0
tS'b'
tRp75
(I1
(I3
tg6
I00
S'OO{J(\xcc\x01@\xf6\x03\x14\x99\xbeW\xf7\xbf\x0bnF\xa3\xc1c\xb9@'
tbsg64
I01
sg65
g61
(g62
(I0
tS'b'
tRp76
(I1
(I3
tg67
I00
S'\x01\x01\x01'
tbsg68
I00
sbag8
(g12
g13
NtRp77
(dp78
g16
g18
sg60
g61
(g62
(I0
tS'b'
tRp79
(I1
(I3
tg6
I00
S'\xb5F\rgg\x89\x03@)\x08\xf54\x16\x16\xf2\xbf\xbe\xfe\xd4"\xe6\x9d\xf0@'
tbsg64
I01
sg65
g61
(g62
(I0
tS'b'
tRp80
(I1
(I3
tg67
I00
S'\x01\x01\x01'
tbsg68
I00
sbag8
(g12
g13
NtRp81
(dp82
g16
g18
sg60
g61
(g62
(I0
tS'b'
tRp83
(I1
(I3
tg6
I00
S'\x01\x98\x01u\x02\xe0\x05@\xb8\x1c#\x16j\x86\xf7\xbfIK#S"3\xc1@'
tbsg64
I01
sg65
g61
(g62
(I0
tS'b'
tRp84
(I1
(I3
tg67
I00
S'\x01\x01\x01'
tbsg68
I00
sbag8
(g12
g13
NtRp85
(dp86
g16
g18
sg60
g61
(g62
(I0
tS'b'
tRp87
(I1
(I3
tg6
I00
S'\x920\xe4\xf5\x00\x08\x07@T|7Z\x1a\xb2\xf7\xbfOd\xa0\x08[F\xd0@'
tbsg64
I01
sg65
g61
(g62
(I0
tS'b'
tRp88
(I1
(I3
tg67
I00
S'\x01\x01\x01'
tbsg68
I00
sbag8
(g12
g13
NtRp89
(dp90
g16
g18
sg60
g61
(g62
(I0
tS'b'
tRp91
(I1
(I3
tg6
I00
S'\xbb\x01\x82Af\xea\x0c@\xd5N$\xcb~\xe3\xef\xbf\xea\xb9\xa0\x8e\x13\xbe\xf1@'
tbsg64
I01
sg65
g61
(g62
(I0
tS'b'
tRp92
(I1
(I3
tg67
I00
S'\x01\x01\x01'
tbsg68
I00
sbag8
(g12
g13
NtRp93
(dp94
g16
g18
sg60
g61
(g62
(I0
tS'b'
tRp95
(I1
(I3
tg6
I00
S"\xbf\xd1\x95\xbaRv\x10@\x89\x14\xa4'\xfc\x0c\xed\xbfz\xd6\xedT\x97,\xed@"
tbsg64
I01
sg65
g61
(g62
(I0
tS'b'
tRp96
(I1
(I3
tg67
I00
S'\x01\x01\x01'
tbsg68
I00
sbag8
(g12
g13
NtRp97
(dp98
g16
g18
sg60
g61
(g62
(I0
tS'b'
tRp99
(I1
(I3
tg6
I00
S'w\xff@}\x19\x16\x12@w\xddYB\x0f\xb4\xf3\xbf\xdd\xe7o\x89\x9cV\xec@'
tbsg64
I01
sg65
g61
(g62
(I0
tS'b'
tRp100
(I1
(I3
tg67
I00
S'\x01\x01\x01'
tbsg68
I00
sbag8
(g12
g13
NtRp101
(dp102
g16
g18
sg60
g61
(g62
(I0
tS'b'
tRp103
(I1
(I3
tg6
I00
S'\xee\xaf\x06Qs\x12\x13@\x1a\xa0\x9f\xa0\x83\x0b\xe8\xbf1\x97^\xdf\xda|\xe6@'
tbsg64
I01
sg65
g61
(g62
(I0
tS'b'
tRp104
(I1
(I3
tg67
I00
S'\x01\x01\x01'
tbsg68
I00
sbag8
(g12
g13
NtRp105
(dp106
g16
g18
sg60
g61
(g62
(I0
tS'b'
tRp107
(I1
(I3
tg6
I00
S'cN\xb1f\xdd\xc5\x14@7{\x98\xd9\xeb\xa6\xf3\xbf\x9f\x93\xd5&R\xc0\xd5@'
tbsg64
I01
sg65
g61
(g62
(I0
tS'b'
tRp108
(I1
(I3
tg67
I00
S'\x01\x01\x01'
tbsg68
I00
sbag8
(g12
g13
NtRp109
(dp110
g16
g18
sg60
g61
(g62
(I0
tS'b'
tRp111
(I1
(I3
tg6
I00
S'QZ}\x17_\xb2\x15@\xc1\xa2y\x19\xe1\x87\xf6\xbf\x0cV\x94;\xb2\xb5\xe3@'
tbsg64
I01
sg65
g61
(g62
(I0
tS'b'
tRp112
(I1
(I3
tg67
I00
S'\x01\x01\x01'
tbsg68
I00
sbag8
(g12
g13
NtRp113
(dp114
g16
g18
sg60
g61
(g62
(I0
tS'b'
tRp115
(I1
(I3
tg6
I00
S'\x9c\t\xfd\x1d[\n\x17@\xa2\x04\xa7\x8fR\x02\xf8?\x12kY\xbf\xe3\xa5\x04A'
tbsg64
I01
sg65
g61
(g62
(I0
tS'b'
tRp116
(I1
(I3
tg67
I00
S'\x01\x01\x01'
tbsg68
I00
sbag8
(g12
g13
NtRp117
(dp118
g16
g18
sg60
g61
(g62
(I0
tS'b'
tRp119
(I1
(I3
tg6
I00
S'\xc4{\xd6Ac\x8f\x18@\x0c&AA\x18D\xf2\xbf\xac\x08s\x99\xe2\x04\xe6@'
tbsg64
I01
sg65
g61
(g62
(I0
tS'b'
tRp120
(I1
(I3
tg67
I00
S'\x01\x01\x01'
tbsg68
I00
sbag8
(g12
g13
NtRp121
(dp122
g16
g18
sg60
g61
(g62
(I0
tS'b'
tRp123
(I1
(I3
tg6
I00
S' \x88\x90\xbdu\x96\x1a@A\xfdx^\xdf$\xe4\xbf^\xa8~\x00\n\xa0\xfe@'
tbsg64
I01
sg65
g61
(g62
(I0
tS'b'
tRp124
(I1
(I3
tg67
I00
S'\x01\x01\x01'
tbsg68
I00
sbag8
(g12
g13
NtRp125
(dp126
g16
g18
sg60
g61
(g62
(I0
tS'b'
tRp127
(I1
(I3
tg6
I00
S'\xb1\xbdB\x97\xf5\x07\x1c@\x8e\x11Mh\xa9\x85\xe9\xbf~\x8e\xac\xdbT\xe8\xe9@'
tbsg64
I01
sg65
g61
(g62
(I0
tS'b'
tRp128
(I1
(I3
tg67
I00
S'\x01\x01\x01'
tbsg68
I00
sbatRp129
a(dp130
g60
g61
(g62
(I0
tS'b'
tRp131
(I1
(I0
tg6
I00
S''
tbsg64
I00
sg65
g61
(g62
(I0
tS'b'
tRp132
(I1
(I0
tg67
I00
S''
tbsg68
I00
sag4
(g6
S'\x08\xd7\xa3p=\xaa\xc0?'
tRp133
aa(lp134
g4
(g6
S'B\x1f2\xd9W\xd5\x9a@'
tRp135
ag8
(g9
g10
(lp136
g8
(g12
g13
NtRp137
(dp138
g16
g8
(g17
g13
NtRp139
(dp140
g20
F5
sg21
(dp141
g20
(F5
g23
tp142
sg25
(F21.299999
g23
tp143
sg27
(F4
g23
tp144
ssg27
F4
sg29
I3
sg25
F21.299999
sg30
g32
sg41
g42
sg48
g49
sg53
g54
sbsg60
g61
(g62
(I0
tS'b'
tRp145
(I1
(I3
tg6
I00
S'\xa1z\x00\xdb_\x13\xf7?\x11\x89$@;$\xf3\xbf\xc9\xb2\xa1\x91 j\xe1@'
tbsg64
I01
sg65
g61
(g62
(I0
tS'b'
tRp146
(I1
(I3
tg67
I00
S'\x01\x01\x01'
tbsg68
I00
sbag8
(g12
g13
NtRp147
(dp148
g16
g139
sg60
g61
(g62
(I0
tS'b'
tRp149
(I1
(I3
tg6
I00
S'\xfc\xd9\xa9\xc8\x08h\x02@\xdf\x8c\x1d\xbeU\x95\xf3\xbfI\x7f\x0b\x87\x88c\xd1@'
tbsg64
I01
sg65
g61
(g62
(I0
tS'b'
tRp150
(I1
(I3
tg67
I00
S'\x01\x01\x01'
tbsg68
I00
sbag8
(g12
g13
NtRp151
(dp152
g16
g139
sg60
g61
(g62
(I0
tS'b'
tRp153
(I1
(I3
tg6
I00
S'\x85\x03\xac\x17\xf6\xb2\x03@\xea\x1f\xe2\x9b\x88\xc5\xf3\xbf\xd7\xa6k\x1cq\xdb\xeb@'
tbsg64
I01
sg65
g61
(g62
(I0
tS'b'
tRp154
(I1
(I3
tg67
I00
S'\x01\x01\x01'
tbsg68
I00
sbag8
(g12
g13
NtRp155
(dp156
g16
g139
sg60
g61
(g62
(I0
tS'b'
tRp157
(I1
(I3
tg6
I00
S'\xc8\xb2\x89\xe2\xcc\xae\x06@\xca\x1a\x1a\xa4\xdc$\xf4\xbf\x80\x12\x15K\x95\xe0\xd4@'
tbsg64
I01
sg65
g61
(g62
(I0
tS'b'
tRp158
(I1
(I3
tg67
I00
S'\x01\x01\x01'
tbsg68
I00
sbag8
(g12
g13
NtRp159
(dp160
g16
g139
sg60
g61
(g62
(I0
tS'b'
tRp161
(I1
(I3
tg6
I00
S'\n\x07\x8eWd,\x0c@\xaa\xc3\x191\x88+\xf7\xbf\x02\x00\x18%\x83\x0c\xdf@'
tbsg64
I01
sg65
g61
(g62
(I0
tS'b'
tRp162
(I1
(I3
tg67
I00
S'\x01\x01\x01'
tbsg68
I00
sbag8
(g12
g13
NtRp163
(dp164
g16
g139
sg60
g61
(g62
(I0
tS'b'
tRp165
(I1
(I3
tg6
I00
S'\x7f\x9fd\xfez:\r@\x8b}z]\xdd"\xf6\xbf\xebv\xadK\x98\x1d\xe5@'
tbsg64
I01
sg65
g61
(g62
(I0
tS'b'
tRp166
(I1
(I3
tg67
I00
S'\x01\x01\x01'
tbsg68
I00
sbag8
(g12
g13
NtRp167
(dp168
g16
g139
sg60
g61
(g62
(I0
tS'b'
tRp169
(I1
(I3
tg6
I00
S'\xa1\xdc\x97x\x89|\x10@\xbd\x8e\xf1\x10|\x87\xe7\xbf{\xfa\xd3\x8e "\xf0@'
tbsg64
I01
sg65
g61
(g62
(I0
tS'b'
tRp170
(I1
(I3
tg67
I00
S'\x01\x01\x01'
tbsg68
I00
sbag8
(g12
g13
NtRp171
(dp172
g16
g139
sg60
g61
(g62
(I0
tS'b'
tRp173
(I1
(I3
tg6
I00
S'\xfa\x86\xd54K\x17\x12@\x87\xee\xdb?\xf1\xa4\xf7\xbf\xf0\xef^P\xf4:\xe4@'
tbsg64
I01
sg65
g61
(g62
(I0
tS'b'
tRp174
(I1
(I3
tg67
I00
S'\x01\x01\x01'
tbsg68
I00
sbag8
(g12
g13
NtRp175
(dp176
g16
g139
sg60
g61
(g62
(I0
tS'b'
tRp177
(I1
(I3
tg6
I00
S'\xa4\xe6\xc2h\xa3\x18\x13@\xe9\x08\xc0_\x04\x85\xf7\xbf\xe7\x02\xf2t(*\xde@'
tbsg64
I01
sg65
g61
(g62
(I0
tS'b'
tRp178
(I1
(I3
tg67
I00
S'\x01\x01\x01'
tbsg68
I00
sbag8
(g12
g13
NtRp179
(dp180
g16
g139
sg60
g61
(g62
(I0
tS'b'
tRp181
(I1
(I3
tg6
I00
S'5\xc2\xca\x11\xa8k\x14@Y(\x03\xe4\xd9\xbf\xec\xbf\x13\x02\xcf\xbda\xc1\xd3@'
tbsg64
I01
sg65
g61
(g62
(I0
tS'b'
tRp182
(I1
(I3
tg67
I00
S'\x01\x01\x01'
tbsg68
I00
sbag8
(g12
g13
NtRp183
(dp184
g16
g139
sg60
g61
(g62
(I0
tS'b'
tRp185
(I1
(I3
tg6
I00
S'1\xfb\xc9\xba!\xa1\x15@GWa~Oz\xed\xbf\xf0w\x12z\xd13\xf0@'
tbsg64
I01
sg65
g61
(g62
(I0
tS'b'
tRp186
(I1
(I3
tg67
I00
S'\x01\x01\x01'
tbsg68
I00
sbag8
(g12
g13
NtRp187
(dp188
g16
g139
sg60
g61
(g62
(I0
tS'b'
tRp189
(I1
(I3
tg6
I00
S'r\xeb\xcf\x01\x9bR\x17@}\x9e\x03\\xH\xec?\xfa\xfbG\x8d\x86x\x03A'
tbsg64
I01
sg65
g61
(g62
(I0
tS'b'
tRp190
(I1
(I3
tg67
I00
S'\x01\x01\x01'
tbsg68
I00
sbag8
(g12
g13
NtRp191
(dp192
g16
g139
sg60
g61
(g62
(I0
tS'b'
tRp193
(I1
(I3
tg6
I00
S'\xdd+\xd1\xfc4\x92\x18@\xf2L>\xb6B\x87\xf6\xbf|)\x8e\xbc\x04\xff\xe0@'
tbsg64
I01
sg65
g61
(g62
(I0
tS'b'
tRp194
(I1
(I3
tg67
I00
S'\x01\x01\x01'
tbsg68
I00
sbag8
(g12
g13
NtRp195
(dp196
g16
g139
sg60
g61
(g62
(I0
tS'b'
tRp197
(I1
(I3
tg6
I00
S'\x8f[\xcd\xb18\xa4\x1a@\x03\xff\x8a\xeb\x90A\xe1\xbftB\x91Q\xc8x\x00A'
tbsg64
I01
sg65
g61
(g62
(I0
tS'b'
tRp198
(I1
(I3
tg67
I00
S'\x01\x01\x01'
tbsg68
I00
sbag8
(g12
g13
NtRp199
(dp200
g16
g139
sg60
g61
(g62
(I0
tS'b'
tRp201
(I1
(I3
tg6
I00
S'\xdb\xed\xe2\xb0\xd4\x1a\x1c@\x90\xc2/\x83@\xcb\xef\xbf\xbbUD\x8ap\xa3\xe4@'
tbsg64
I01
sg65
g61
(g62
(I0
tS'b'
tRp202
(I1
(I3
tg67
I00
S'\x01\x01\x01'
tbsg68
I00
sbatRp203
a(dp204
g60
g61
(g62
(I0
tS'b'
tRp205
(I1
(I0
tg6
I00
S''
tbsg64
I00
sg65
g61
(g62
(I0
tS'b'
tRp206
(I1
(I0
tg67
I00
S''
tbsg68
I00
sag4
(g6
S'0\xb2\x9d\xef\xa7\xc6\xc1?'
tRp207
aa(lp208
g4
(g6
S'\xf0f\x13T\xac\xba\xa1@'
tRp209
ag8
(g9
g10
(lp210
g8
(g12
g13
NtRp211
(dp212
g16
g8
(g17
g13
NtRp213
(dp214
g20
F5
sg21
(dp215
g20
(F5
g23
tp216
sg25
(F21.299999
g23
tp217
sg27
(F4
g23
tp218
ssg27
F4
sg29
I3
sg25
F21.299999
sg30
g32
sg41
g42
sg48
g49
sg53
g54
sbsg60
g61
(g62
(I0
tS'b'
tRp219
(I1
(I3
tg6
I00
S'!\xdf\x92\x11j\x0e\xf6?<\x9a\xecd;\x08\xf5\xbf2\xadRXk\n\xce@'
tbsg64
I01
sg65
g61
(g62
(I0
tS'b'
tRp220
(I1
(I3
tg67
I00
S'\x01\x01\x01'
tbsg68
I00
sbag8
(g12
g13
NtRp221
(dp222
g16
g213
sg60
g61
(g62
(I0
tS'b'
tRp223
(I1
(I3
tg6
I00
S'~\xd9\xb2n%\xba\xf7?\xcb\xfc`\x97UU\xf7\xbf\xb4\xcd\x89\n\xc1a\xd8@'
tbsg64
I01
sg65
g61
(g62
(I0
tS'b'
tRp224
(I1
(I3
tg67
I00
S'\x01\x01\x01'
tbsg68
I00
sbag8
(g12
g13
NtRp225
(dp226
g16
g213
sg60
g61
(g62
(I0
tS'b'
tRp227
(I1
(I3
tg6
I00
S'\xef\xa6o\x9d\xe5\x14\x02@\xf3\xf9\x90\x1fq\x87\xf7\xbf7\xb9\xe4\x0e\xd9(\xbb@'
tbsg64
I01
sg65
g61
(g62
(I0
tS'b'
tRp228
(I1
(I3
tg67
I00
S'\x01\x01\x01'
tbsg68
I00
sbag8
(g12
g13
NtRp229
(dp230
g16
g213
sg60
g61
(g62
(I0
tS'b'
tRp231
(I1
(I3
tg6
I00
S'\xe9\x180\x95\x95\x94\x03@/\xd8\x8a\x90\tU\xf2\xbf\x85/<\xc5\xf51\xf0@'
tbsg64
I01
sg65
g61
(g62
(I0
tS'b'
tRp232
(I1
(I3
tg67
I00
S'\x01\x01\x01'
tbsg68
I00
sbag8
(g12
g13
NtRp233
(dp234
g16
g213
sg60
g61
(g62
(I0
tS'b'
tRp235
(I1
(I3
tg6
I00
S'-\x97A\xb3)\xb4\x06@\xa7misXM\xf2\xbf\xc6\x00%\xcd\x08\xe3\xd6@'
tbsg64
I01
sg65
g61
(g62
(I0
tS'b'
tRp236
(I1
(I3
tg67
I00
S'\x01\x01\x01'
tbsg68
I00
sbag8
(g12
g13
NtRp237
(dp238
g16
g213
sg60
g61
(g62
(I0
tS'b'
tRp239
(I1
(I3
tg6
I00
S'\xe0\x08\xc3\xfd\xb1\xea\x0c@{\xe9G\xfc&\r\xf0\xbf0y\xb3\xc0?\xc2\xf1@'
tbsg64
I01
sg65
g61
(g62
(I0
tS'b'
tRp240
(I1
(I3
tg67
I00
S'\x01\x01\x01'
tbsg68
I00
sbag8
(g12
g13
NtRp241
(dp242
g16
g213
sg60
g61
(g62
(I0
tS'b'
tRp243
(I1
(I3
tg6
I00
S'S\x99\x7f/\x1dy\x10@\xf6\x16\t\xef(c\xeb\xbf6\xe9k=G!\xee@'
tbsg64
I01
sg65
g61
(g62
(I0
tS'b'
tRp244
(I1
(I3
tg67
I00
S'\x01\x01\x01'
tbsg68
I00
sbag8
(g12
g13
NtRp245
(dp246
g16
g213
sg60
g61
(g62
(I0
tS'b'
tRp247
(I1
(I3
tg6
I00
S'\xe0\xcaFN,\x12\x12@\x1c{\xcf<\xad\x04\xf6\xbft\xde\xfa\xcc\x0c\xe8\xe9@'
tbsg64
I01
sg65
g61
(g62
(I0
tS'b'
tRp248
(I1
(I3
tg67
I00
S'\x01\x01\x01'
tbsg68
I00
sbag8
(g12
g13
NtRp249
(dp250
g16
g213
sg60
g61
(g62
(I0
tS'b'
tRp251
(I1
(I3
tg6
I00
S'A!cC\xd4\xff\x12@#s\xc6\xc2\xe2\xbd\xea\xbf\x1c\x1ds\xf7\nR\xe7@'
tbsg64
I01
sg65
g61
(g62
(I0
tS'b'
tRp252
(I1
(I3
tg67
I00
S'\x01\x01\x01'
tbsg68
I00
sbag8
(g12
g13
NtRp253
(dp254
g16
g213
sg60
g61
(g62
(I0
tS'b'
tRp255
(I1
(I3
tg6
I00
S'V\xb2\xaf\xf7<\x9c\x14@q\xc0\x1e-\x0b\x9c\xf0\xbf\xe8\xaf:\xdc\xe8\x1c\xd7@'
tbsg64
I01
sg65
g61
(g62
(I0
tS'b'
tRp256
(I1
(I3
tg67
I00
S'\x01\x01\x01'
tbsg68
I00
sbag8
(g12
g13
NtRp257
(dp258
g16
g213
sg60
g61
(g62
(I0
tS'b'
tRp259
(I1
(I3
tg6
I00
S'\xab\xc4\x057h\xc5\x15@\xbf$\xb2\xa5B\xf4\xea\xbf\xc3S\x01\xe7\xb4\xed\xf7@'
tbsg64
I01
sg65
g61
(g62
(I0
tS'b'
tRp260
(I1
(I3
tg67
I00
S'\x01\x01\x01'
tbsg68
I00
sbag8
(g12
g13
NtRp261
(dp262
g16
g213
sg60
g61
(g62
(I0
tS'b'
tRp263
(I1
(I3
tg6
I00
S'iV|X$(\x17@\xb1\x8e\x89\xdd\x19\xd4\xec\xbf\x02\xcd\xfd\xff\xf3:\xf0@'
tbsg64
I01
sg65
g61
(g62
(I0
tS'b'
tRp264
(I1
(I3
tg67
I00
S'\x01\x01\x01'
tbsg68
I00
sbag8
(g12
g13
NtRp265
(dp266
g16
g213
sg60
g61
(g62
(I0
tS'b'
tRp267
(I1
(I3
tg6
I00
S'\xe5\xaeQ\x06\xb6w\x18@\xac\xabs\x01\xd4\x88\xed\xbf\x00=E\x0bq\x05\xf5@'
tbsg64
I01
sg65
g61
(g62
(I0
tS'b'
tRp268
(I1
(I3
tg67
I00
S'\x01\x01\x01'
tbsg68
I00
sbag8
(g12
g13
NtRp269
(dp270
g16
g213
sg60
g61
(g62
(I0
tS'b'
tRp271
(I1
(I3
tg6
I00
S'\xc7x\xba\x8b\x9f\x96\x1a@A\xa7b\xfe\xa8L\xe2\xbf\xee\x1cLS\xbb3\x00A'
tbsg64
I01
sg65
g61
(g62
(I0
tS'b'
tRp272
(I1
(I3
tg67
I00
S'\x01\x01\x01'
tbsg68
I00
sbag8
(g12
g13
NtRp273
(dp274
g16
g213
sg60
g61
(g62
(I0
tS'b'
tRp275
(I1
(I3
tg6
I00
S'\x89\x85uz\xd1\x0f\x1c@\x10\x96\x15\x06m\x1e\xeb\xbf\x1b\xf1\x1f\xaf\xcc\x14\xe8@'
tbsg64
I01
sg65
g61
(g62
(I0
tS'b'
tRp276
(I1
(I3
tg67
I00
S'\x01\x01\x01'
tbsg68
I00
sbatRp277
a(dp278
g60
g61
(g62
(I0
tS'b'
tRp279
(I1
(I0
tg6
I00
S''
tbsg64
I00
sg65
g61
(g62
(I0
tS'b'
tRp280
(I1
(I0
tg67
I00
S''
tbsg68
I00
sag4
(g6
S'0\xb2\x9d\xef\xa7\xc6\xc1?'
tRp281
aa(lp282
g4
(g6
S'@\xbe\x8d\xbb\xac\n\xa6@'
tRp283
ag8
(g9
g10
(lp284
g8
(g12
g13
NtRp285
(dp286
g16
g8
(g17
g13
NtRp287
(dp288
g20
F5
sg21
(dp289
g20
(F5
g23
tp290
sg25
(F21.299999
g23
tp291
sg27
(F4
g23
tp292
ssg27
F4
sg29
I3
sg25
F21.299999
sg30
g32
sg41
g42
sg48
g49
sg53
g54
sbsg60
g61
(g62
(I0
tS'b'
tRp293
(I1
(I3
tg6
I00
S'\x16\x8b\x81\xe7\xa8\x0e\xf7?\x9b\xdf\xc3"\xe5\x1e\xf3\xbf\xb6\xa5\xcd\x94\xc1\x89\xe1@'
tbsg64
I01
sg65
g61
(g62
(I0
tS'b'
tRp294
(I1
(I3
tg67
I00
S'\x01\x01\x01'
tbsg68
I00
sbag8
(g12
g13
NtRp295
(dp296
g16
g287
sg60
g61
(g62
(I0
tS'b'
tRp297
(I1
(I3
tg6
I00
S'\x11\x02|<\xc6\x82\x03@tp\x85C\xddy\xee\xbf\xdd\x0b\x82\x0fR\xca\xf2@'
tbsg64
I01
sg65
g61
(g62
(I0
tS'b'
tRp298
(I1
(I3
tg67
I00
S'\x01\x01\x01'
tbsg68
I00
sbag8
(g12
g13
NtRp299
(dp300
g16
g287
sg60
g61
(g62
(I0
tS'b'
tRp301
(I1
(I3
tg6
I00
S'\xa0\t\xa0\xfa\xd5\xc1\x06@\x02&\x9f\t\xbe\xf0\xf7\xbf\x8d\xfcc\xfa_\xd4\xf1@'
tbsg64
I01
sg65
g61
(g62
(I0
tS'b'
tRp302
(I1
(I3
tg67
I00
S'\x01\x01\x01'
tbsg68
I00
sbag8
(g12
g13
NtRp303
(dp304
g16
g287
sg60
g61
(g62
(I0
tS'b'
tRp305
(I1
(I3
tg6
I00
S'\x9a\xcc\x96\xbe2\xed\x0c@\xcf?\xd1\x92v\x84\xed\xbf"m\x12)\xb8\x86\xf2@'
tbsg64
I01
sg65
g61
(g62
(I0
tS'b'
tRp306
(I1
(I3
tg67
I00
S'\x01\x01\x01'
tbsg68
I00
sbag8
(g12
g13
NtRp307
(dp308
g16
g287
sg60
g61
(g62
(I0
tS'b'
tRp309
(I1
(I3
tg6
I00
S'\xb8\xd6 .\x0e0\x10@3\x15\x9e\xdc\xc9|\xf7\xbff-\xe7W\xcb5\xda@'
tbsg64
I01
sg65
g61
(g62
(I0
tS'b'
tRp310
(I1
(I3
tg67
I00
S'\x01\x01\x01'
tbsg68
I00
sbag8
(g12
g13
NtRp311
(dp312
g16
g287
sg60
g61
(g62
(I0
tS'b'
tRp313
(I1
(I3
tg6
I00
S'\xe9\x05\x9f\x95\xec\xe4\x10@\xa0i\x999\xdc\x17\xf7\xbf\xdc\xa7\x8cw7&\xda@'
tbsg64
I01
sg65
g61
(g62
(I0
tS'b'
tRp314
(I1
(I3
tg67
I00
S'\x01\x01\x01'
tbsg68
I00
sbag8
(g12
g13
NtRp315
(dp316
g16
g287
sg60
g61
(g62
(I0
tS'b'
tRp317
(I1
(I3
tg6
I00
S'Q\xf8\xe5yz+\x12@/u,\xa7\xe4E\xf3\xbf2\x1f\xc7kEA\xf1@'
tbsg64
I01
sg65
g61
(g62
(I0
tS'b'
tRp318
(I1
(I3
tg67
I00
S'\x01\x01\x01'
tbsg68
I00
sbag8
(g12
g13
NtRp319
(dp320
g16
g287
sg60
g61
(g62
(I0
tS'b'
tRp321
(I1
(I3
tg6
I00
S'\xcb\x9c\x9bU\xfb>\x13@+\xc7\xc9a/\x9e\xf6\xbf\xea*\xfe\xf3\xd7\x18\xdd@'
tbsg64
I01
sg65
g61
(g62
(I0
tS'b'
tRp322
(I1
(I3
tg67
I00
S'\x01\x01\x01'
tbsg68
I00
sbag8
(g12
g13
NtRp323
(dp324
g16
g287
sg60
g61
(g62
(I0
tS'b'
tRp325
(I1
(I3
tg6
I00
S'u\xfeq\x86\xbb\x81\x14@\xd8]\\2\xe8\x95\xf6\xbf\x8e\xc5\tP{\xc3\xd1@'
tbsg64
I01
sg65
g61
(g62
(I0
tS'b'
tRp326
(I1
(I3
tg67
I00
S'\x01\x01\x01'
tbsg68
I00
sbag8
(g12
g13
NtRp327
(dp328
g16
g287
sg60
g61
(g62
(I0
tS'b'
tRp329
(I1
(I3
tg6
I00
S'e\x05\xd8\x06\xf8\x9c\x15@\x11\xd9n\\\x90\xe8\xf0\xbftQ\xde\xa4\x14p\xec@'
tbsg64
I01
sg65
g61
(g62
(I0
tS'b'
tRp330
(I1
(I3
tg67
I00
S'\x01\x01\x01'
tbsg68
I00
sbag8
(g12
g13
NtRp331
(dp332
g16
g287
sg60
g61
(g62
(I0
tS'b'
tRp333
(I1
(I3
tg6
I00
S'I{\xd8\x03w+\x17@\xd5\xc5\xae\xa1+.\xec?\x17.\xa5\xc8\x9d{\x03A'
tbsg64
I01
sg65
g61
(g62
(I0
tS'b'
tRp334
(I1
(I3
tg67
I00
S'\x01\x01\x01'
tbsg68
I00
sbag8
(g12
g13
NtRp335
(dp336
g16
g287
sg60
g61
(g62
(I0
tS'b'
tRp337
(I1
(I3
tg6
I00
S'\x11\x80\x9d\x95\x08\x91\x18@\xe8\x1eS\x8b\x04\xb9\xf3\xbft\xa1,\xf3\xb7;\xe4@'
tbsg64
I01
sg65
g61
(g62
(I0
tS'b'
tRp338
(I1
(I3
tg67
I00
S'\x01\x01\x01'
tbsg68
I00
sbag8
(g12
g13
NtRp339
(dp340
g16
g287
sg60
g61
(g62
(I0
tS'b'
tRp341
(I1
(I3
tg6
I00
S'\xa11\xd5\xe3\x90\x9c\x1a@\x9a\xac\x1a\x07\x81t\xe2\xbfK\xb9\x00\x03n\x0e\x00A'
tbsg64
I01
sg65
g61
(g62
(I0
tS'b'
tRp342
(I1
(I3
tg67
I00
S'\x01\x01\x01'
tbsg68
I00
sbag8
(g12
g13
NtRp343
(dp344
g16
g287
sg60
g61
(g62
(I0
tS'b'
tRp345
(I1
(I3
tg6
I00
S'\xb8\xae6,\xe1\x11\x1c@,\xc4\xc98\xbe\xb5\xec\xbfI\xb1;i=\r\xe7@'
tbsg64
I01
sg65
g61
(g62
(I0
tS'b'
tRp346
(I1
(I3
tg67
I00
S'\x01\x01\x01'
tbsg68
I00
sbatRp347
a(dp348
g60
g61
(g62
(I0
tS'b'
tRp349
(I1
(I0
tg6
I00
S''
tbsg64
I00
sg65
g61
(g62
(I0
tS'b'
tRp350
(I1
(I0
tg67
I00
S''
tbsg68
I00
sag4
(g6
S"`\xa6'\xc5\t\xe1\xc2?"
tRp351
aa(lp352
g4
(g6
S'\x8f\x15\x08#\xadZ\xaa@'
tRp353
ag8
(g9
g10
(lp354
g8
(g12
g13
NtRp355
(dp356
g16
g8
(g17
g13
NtRp357
(dp358
g20
F5
sg21
(dp359
g20
(F5
g23
tp360
sg25
(F21.299999
g23
tp361
sg27
(F4
g23
tp362
ssg27
F4
sg29
I3
sg25
F21.299999
sg30
g32
sg41
g42
sg48
g49
sg53
g54
sbsg60
g61
(g62
(I0
tS'b'
tRp363
(I1
(I3
tg6
I00
S'\xd1\x1c\xdc\xcc\xd6\x12\xf7?+ M\xc0\xa0\xb7\xf2\xbf\xfe\x88:]\x94\xaa\xe1@'
tbsg64
I01
sg65
g61
(g62
(I0
tS'b'
tRp364
(I1
(I3
tg67
I00
S'\x01\x01\x01'
tbsg68
I00
sbag8
(g12
g13
NtRp365
(dp366
g16
g357
sg60
g61
(g62
(I0
tS'b'
tRp367
(I1
(I3
tg6
I00
S'\xc1\x07x\xe2\xe5\x14\xfe?\xbc)\xf4,IZ\xf8\xbf\xed\x1d\xbe\x1d\xa1\x82\xb6@'
tbsg64
I01
sg65
g61
(g62
(I0
tS'b'
tRp368
(I1
(I3
tg67
I00
S'\x01\x01\x01'
tbsg68
I00
sbag8
(g12
g13
NtRp369
(dp370
g16
g357
sg60
g61
(g62
(I0
tS'b'
tRp371
(I1
(I3
tg6
I00
S'\x02\\Q\xae7\xe3\x02@\xf1V\x8fZ\x94M\xef\xbfev\xa3\x86H\x96\xe1@'
tbsg64
I01
sg65
g61
(g62
(I0
tS'b'
tRp372
(I1
(I3
tg67
I00
S'\x01\x01\x01'
tbsg68
I00
sbag8
(g12
g13
NtRp373
(dp374
g16
g357
sg60
g61
(g62
(I0
tS'b'
tRp375
(I1
(I3
tg6
I00
S'\x05\x12\x8cb\xc0\xc8\x03@jJ\xbc\xa4\xa8\x85\xf6\xbf\xddl\xf2\x05\xcb\xc1\xe2@'
tbsg64
I01
sg65
g61
(g62
(I0
tS'b'
tRp376
(I1
(I3
tg67
I00
S'\x01\x01\x01'
tbsg68
I00
sbag8
(g12
g13
NtRp377
(dp378
g16
g357
sg60
g61
(g62
(I0
tS'b'
tRp379
(I1
(I3
tg6
I00
S"K'\xad\xcfS\xa3\x06@\xda\xe55\xa9\x8e>\xf1\xbf\x82\xd3\x16\xa6\xe1\x0e\xd8@"
tbsg64
I01
sg65
g61
(g62
(I0
tS'b'
tRp380
(I1
(I3
tg67
I00
S'\x01\x01\x01'
tbsg68
I00
sbag8
(g12
g13
NtRp381
(dp382
g16
g357
sg60
g61
(g62
(I0
tS'b'
tRp383
(I1
(I3
tg6
I00
S'rA+\x9fv\x06\x0c@\xddX\xf1C\x80\x02\xf7\xbf\xa9\x96\xa9|+\xec\xd6@'
tbsg64
I01
sg65
g61
(g62
(I0
tS'b'
tRp384
(I1
(I3
tg67
I00
S'\x01\x01\x01'
tbsg68
I00
sbag8
(g12
g13
NtRp385
(dp386
g16
g357
sg60
g61
(g62
(I0
tS'b'
tRp387
(I1
(I3
tg6
I00
S'\x98\xfe\x00\xf7=2\r@\xf1W[G\xe6\xd6\xf5\xbf:] \xd1r\x1b\xe8@'
tbsg64
I01
sg65
g61
(g62
(I0
tS'b'
tRp388
(I1
(I3
tg67
I00
S'\x01\x01\x01'
tbsg68
I00
sbag8
(g12
g13
NtRp389
(dp390
g16
g357
sg60
g61
(g62
(I0
tS'b'
tRp391
(I1
(I3
tg6
I00
S'\xad\xc9\x8eS\xcaz\x10@A\xb6S]\x1f\x97\xe7\xbf\xa7\xee\xc3u\x08\x11\xf0@'
tbsg64
I01
sg65
g61
(g62
(I0
tS'b'
tRp392
(I1
(I3
tg67
I00
S'\x01\x01\x01'
tbsg68
I00
sbag8
(g12
g13
NtRp393
(dp394
g16
g357
sg60
g61
(g62
(I0
tS'b'
tRp395
(I1
(I3
tg6
I00
S')\xec=\x08\xb5&\x12@\xde\x03\xcci\xc7\x97\xf5\xbf\x81\xdc\x1c\x8f&s\xef@'
tbsg64
I01
sg65
g61
(g62
(I0
tS'b'
tRp396
(I1
(I3
tg67
I00
S'\x01\x01\x01'
tbsg68
I00
sbag8
(g12
g13
NtRp397
(dp398
g16
g357
sg60
g61
(g62
(I0
tS'b'
tRp399
(I1
(I3
tg6
I00
S'\x9ay\x1f\x08\xd9+\x13@S\xccg\x87jP\xf7\xbf\xb7@p\xaf\xa8\xe4\xe3@'
tbsg64
I01
sg65
g61
(g62
(I0
tS'b'
tRp400
(I1
(I3
tg67
I00
S'\x01\x01\x01'
tbsg68
I00
sbag8
(g12
g13
NtRp401
(dp402
g16
g357
sg60
g61
(g62
(I0
tS'b'
tRp403
(I1
(I3
tg6
I00
S'S\xa2\x19\xddUf\x14@\xef\xf0;i\x04(\xf6\xbf\xb8:\x81\x87O\xb0\xd2@'
tbsg64
I01
sg65
g61
(g62
(I0
tS'b'
tRp404
(I1
(I3
tg67
I00
S'\x01\x01\x01'
tbsg68
I00
sbag8
(g12
g13
NtRp405
(dp406
g16
g357
sg60
g61
(g62
(I0
tS'b'
tRp407
(I1
(I3
tg6
I00
S'H\xe4\x86S\xd0\x98\x15@\x97\xeb\x96\xb6\x12.\xee\xbf\xf3\x1aa&\xa0\x07\xf2@'
tbsg64
I01
sg65
g61
(g62
(I0
tS'b'
tRp408
(I1
(I3
tg67
I00
S'\x01\x01\x01'
tbsg68
I00
sbag8
(g12
g13
NtRp409
(dp410
g16
g357
sg60
g61
(g62
(I0
tS'b'
tRp411
(I1
(I3
tg6
I00
S'\xe6\xf2\xbbL\r&\x17@!\xee\xd8 \xccI\xb7?\xce\x8d9\xa4H\x04\xff@'
tbsg64
I01
sg65
g61
(g62
(I0
tS'b'
tRp412
(I1
(I3
tg67
I00
S'\x01\x01\x01'
tbsg68
I00
sbag8
(g12
g13
NtRp413
(dp414
g16
g357
sg60
g61
(g62
(I0
tS'b'
tRp415
(I1
(I3
tg6
I00
S'Uv\xf0i\xa9\x92\x18@\x00\xae\x98*\x9a*\xf1\xbf<\rn\xa4(\x99\xeb@'
tbsg64
I01
sg65
g61
(g62
(I0
tS'b'
tRp416
(I1
(I3
tg67
I00
S'\x01\x01\x01'
tbsg68
I00
sbag8
(g12
g13
NtRp417
(dp418
g16
g357
sg60
g61
(g62
(I0
tS'b'
tRp419
(I1
(I3
tg6
I00
S'\xd0\xa7\xf5\x03[\x92\x1a@\x14_\xc0\xc8w\x05\xe3\xbfR~\x83\x93J\xa1\xff@'
tbsg64
I01
sg65
g61
(g62
(I0
tS'b'
tRp420
(I1
(I3
tg67
I00
S'\x01\x01\x01'
tbsg68
I00
sbag8
(g12
g13
NtRp421
(dp422
g16
g357
sg60
g61
(g62
(I0
tS'b'
tRp423
(I1
(I3
tg6
I00
S'\xe6\xeb[;\xdb\x08\x1c@|0\x01U\x99\x07\xe9\xbf\xf5\xe4\x95\xe2\x04\xc3\xe9@'
tbsg64
I01
sg65
g61
(g62
(I0
tS'b'
tRp424
(I1
(I3
tg67
I00
S'\x01\x01\x01'
tbsg68
I00
sbatRp425
a(dp426
g60
g61
(g62
(I0
tS'b'
tRp427
(I1
(I0
tg6
I00
S''
tbsg64
I00
sg65
g61
(g62
(I0
tS'b'
tRp428
(I1
(I0
tg67
I00
S''
tbsg68
I00
sag4
(g6
S'\x08\xd7\xa3p=\xaa\xc0?'
tRp429
aa(lp430
g4
(g6
S'\xdel\x82\x8a\xad\xaa\xae@'
tRp431
ag8
(g9
g10
(lp432
g8
(g12
g13
NtRp433
(dp434
g16
g8
(g17
g13
NtRp435
(dp436
g20
F5
sg21
(dp437
g20
(F5
g23
tp438
sg25
(F21.299999
g23
tp439
sg27
(F4
g23
tp440
ssg27
F4
sg29
I3
sg25
F21.299999
sg30
g32
sg41
g42
sg48
g49
sg53
g54
sbsg60
g61
(g62
(I0
tS'b'
tRp441
(I1
(I3
tg6
I00
S'J\xff\x13\x83\xc2\x0e\xf7?\x90\x92\xc0\x04\xb1\xe6\xf2\xbf\xa5\t\xa5\x05]\xad\xe1@'
tbsg64
I01
sg65
g61
(g62
(I0
tS'b'
tRp442
(I1
(I3
tg67
I00
S'\x01\x01\x01'
tbsg68
I00
sbag8
(g12
g13
NtRp443
(dp444
g16
g435
sg60
g61
(g62
(I0
tS'b'
tRp445
(I1
(I3
tg6
I00
S'z\x19\xe0b\xe2\xbe\xfd?\xde\xea\x90\xfd\xce\xc3\xf7\xbf\x8fKImv\x07\xb9@'
tbsg64
I01
sg65
g61
(g62
(I0
tS'b'
tRp446
(I1
(I3
tg67
I00
S'\x01\x01\x01'
tbsg68
I00
sbag8
(g12
g13
NtRp447
(dp448
g16
g435
sg60
g61
(g62
(I0
tS'b'
tRp449
(I1
(I3
tg6
I00
S'\xb3b \x92\xdb\x82\x03@\xfb\x8fH1\xd3\x8f\xef\xbf"\xe3\xce\xd4\x9a\x80\xf2@'
tbsg64
I01
sg65
g61
(g62
(I0
tS'b'
tRp450
(I1
(I3
tg67
I00
S'\x01\x01\x01'
tbsg68
I00
sbag8
(g12
g13
NtRp451
(dp452
g16
g435
sg60
g61
(g62
(I0
tS'b'
tRp453
(I1
(I3
tg6
I00
S'\xda\xddC\x96H\xbe\x06@E\xb0\x82\xe6CZ\xf5\xbfe\xb4\xcc\xbf\xf0\xba\xd4@'
tbsg64
I01
sg65
g61
(g62
(I0
tS'b'
tRp454
(I1
(I3
tg67
I00
S'\x01\x01\x01'
tbsg68
I00
sbag8
(g12
g13
NtRp455
(dp456
g16
g435
sg60
g61
(g62
(I0
tS'b'
tRp457
(I1
(I3
tg6
I00
S'\xef\xe5\x83\xb3O\xea\x0c@&N;l\xc2\x95\xef\xbff zI\x0f\xec\xf1@'
tbsg64
I01
sg65
g61
(g62
(I0
tS'b'
tRp458
(I1
(I3
tg67
I00
S'\x01\x01\x01'
tbsg68
I00
sbag8
(g12
g13
NtRp459
(dp460
g16
g435
sg60
g61
(g62
(I0
tS'b'
tRp461
(I1
(I3
tg6
I00
S'\xbb\xff<8[t\x10@x\xf4C\xda\xb5\xc4\xed\xbfzl\x1b\x95+\xcb\xec@'
tbsg64
I01
sg65
g61
(g62
(I0
tS'b'
tRp462
(I1
(I3
tg67
I00
S'\x01\x01\x01'
tbsg68
I00
sbag8
(g12
g13
NtRp463
(dp464
g16
g435
sg60
g61
(g62
(I0
tS'b'
tRp465
(I1
(I3
tg6
I00
S'\xf0[\xe3\x96\r,\x12@\xf5\x11\x88\x87\xf5A\xf1\xbf\x8f0\xf3t\xd6?\xf2@'
tbsg64
I01
sg65
g61
(g62
(I0
tS'b'
tRp466
(I1
(I3
tg67
I00
S'\x01\x01\x01'
tbsg68
I00
sbag8
(g12
g13
NtRp467
(dp468
g16
g435
sg60
g61
(g62
(I0
tS'b'
tRp469
(I1
(I3
tg6
I00
S'\xe2\x1a\x08\xb0eE\x13@\xe0\xe6\x0e_v9\xf5\xbf#:^Qg\x95\xda@'
tbsg64
I01
sg65
g61
(g62
(I0
tS'b'
tRp470
(I1
(I3
tg67
I00
S'\x01\x01\x01'
tbsg68
I00
sbag8
(g12
g13
NtRp471
(dp472
g16
g435
sg60
g61
(g62
(I0
tS'b'
tRp473
(I1
(I3
tg6
I00
S'\xca\x1d\xd3\x15=\x84\x14@\x8709B\x11F\xf3\xbf\xdb\x02\xcf]\x1c\x18\xd4@'
tbsg64
I01
sg65
g61
(g62
(I0
tS'b'
tRp474
(I1
(I3
tg67
I00
S'\x01\x01\x01'
tbsg68
I00
sbag8
(g12
g13
NtRp475
(dp476
g16
g435
sg60
g61
(g62
(I0
tS'b'
tRp477
(I1
(I3
tg6
I00
S'Sg\xe3\xb7\x07\xb8\x15@\xbc\x7f\x1d\xaf1\x05\xeb\xbf\xb4\xe8\xf2+\x92\xab\xf7@'
tbsg64
I01
sg65
g61
(g62
(I0
tS'b'
tRp478
(I1
(I3
tg67
I00
S'\x01\x01\x01'
tbsg68
I00
sbag8
(g12
g13
NtRp479
(dp480
g16
g435
sg60
g61
(g62
(I0
tS'b'
tRp481
(I1
(I3
tg6
I00
S'\xf6\xfd\x88=\xd1,\x17@3\xc6c\xd2\xb8\x84\xe7\xbf-\t\x82(\x88\x01\xf3@'
tbsg64
I01
sg65
g61
(g62
(I0
tS'b'
tRp482
(I1
(I3
tg67
I00
S'\x01\x01\x01'
tbsg68
I00
sbag8
(g12
g13
NtRp483
(dp484
g16
g435
sg60
g61
(g62
(I0
tS'b'
tRp485
(I1
(I3
tg6
I00
S'\x1aa\xc6\xb0L\x80\x18@C\xad\xd4\x8b\\\xd3\xef\xbf\xda\xf9k\x1c\x12"\xf3@'
tbsg64
I01
sg65
g61
(g62
(I0
tS'b'
tRp486
(I1
(I3
tg67
I00
S'\x01\x01\x01'
tbsg68
I00
sbag8
(g12
g13
NtRp487
(dp488
g16
g435
sg60
g61
(g62
(I0
tS'b'
tRp489
(I1
(I3
tg6
I00
S'\x80\xf3\x8b\xee\xd7\x9a\x1a@/B j\xb6\xd4\xe0\xbf\x9eBq\x12\xd7\xc6\x00A'
tbsg64
I01
sg65
g61
(g62
(I0
tS'b'
tRp490
(I1
(I3
tg67
I00
S'\x01\x01\x01'
tbsg68
I00
sbag8
(g12
g13
NtRp491
(dp492
g16
g435
sg60
g61
(g62
(I0
tS'b'
tRp493
(I1
(I3
tg6
I00
S'S\x7f\x91\x87D\x17\x1c@\x0fK\xbf\xaa\xe8\xdd\xed\xbf.\x7f>7U\xec\xe5@'
tbsg64
I01
sg65
g61
(g62
(I0
tS'b'
tRp494
(I1
(I3
tg67
I00
S'\x01\x01\x01'
tbsg68
I00
sbatRp495
a(dp496
g60
g61
(g62
(I0
tS'b'
tRp497
(I1
(I0
tg6
I00
S''
tbsg64
I00
sg65
g61
(g62
(I0
tS'b'
tRp498
(I1
(I0
tg67
I00
S''
tbsg68
I00
sag4
(g6
S"`\xa6'\xc5\t\xe1\xc2?"
tRp499
aa(lp500
g4
(g6
S'\x17b\xfe\xf8V}\xb1@'
tRp501
ag8
(g9
g10
(lp502
g8
(g12
g13
NtRp503
(dp504
g16
g8
(g17
g13
NtRp505
(dp506
g20
F5
sg21
(dp507
g20
(F5
g23
tp508
sg25
(F21.299999
g23
tp509
sg27
(F4
g23
tp510
ssg27
F4
sg29
I3
sg25
F21.299999
sg30
g32
sg41
g42
sg48
g49
sg53
g54
sbsg60
g61
(g62
(I0
tS'b'
tRp511
(I1
(I3
tg6
I00
S'\xb3\x80E\x14f\x0c\xf7?C\xbb\x8b\xcb\x96C\xf3\xbf\xde\xf7\x80\xc3Si\xe1@'
tbsg64
I01
sg65
g61
(g62
(I0
tS'b'
tRp512
(I1
(I3
tg67
I00
S'\x01\x01\x01'
tbsg68
I00
sbag8
(g12
g13
NtRp513
(dp514
g16
g505
sg60
g61
(g62
(I0
tS'b'
tRp515
(I1
(I3
tg6
I00
S'\xe8\x8a5\n\xfcH\x03@\xd79\x99\xd9\r\xba\xed\xbf]\x07\xfbB\xb0\xd1\xeb@'
tbsg64
I01
sg65
g61
(g62
(I0
tS'b'
tRp516
(I1
(I3
tg67
I00
S'\x01\x01\x01'
tbsg68
I00
sbag8
(g12
g13
NtRp517
(dp518
g16
g505
sg60
g61
(g62
(I0
tS'b'
tRp519
(I1
(I3
tg6
I00
S'/\x19v\t^\xec\x03@LE\xf5\xe2\x0ev\xf7\xbf\x94\xb9`\xe8\x88>\xd4@'
tbsg64
I01
sg65
g61
(g62
(I0
tS'b'
tRp520
(I1
(I3
tg67
I00
S'\x01\x01\x01'
tbsg68
I00
sbag8
(g12
g13
NtRp521
(dp522
g16
g505
sg60
g61
(g62
(I0
tS'b'
tRp523
(I1
(I3
tg6
I00
S'\xcc(|\x9c\xf6\xb5\x06@\xd4\xb7\x03\xea\x86v\xf3\xbf\xd0\xc8\xa2\x1b\xe3\xf5\xd5@'
tbsg64
I01
sg65
g61
(g62
(I0
tS'b'
tRp524
(I1
(I3
tg67
I00
S'\x01\x01\x01'
tbsg68
I00
sbag8
(g12
g13
NtRp525
(dp526
g16
g505
sg60
g61
(g62
(I0
tS'b'
tRp527
(I1
(I3
tg6
I00
S'\x9d.\xb76\xfd\xe9\x0c@dG\r\xfc0I\xf0\xbf\x93\xc0\xff\xfc\x8b\x9a\xf1@'
tbsg64
I01
sg65
g61
(g62
(I0
tS'b'
tRp528
(I1
(I3
tg67
I00
S'\x01\x01\x01'
tbsg68
I00
sbag8
(g12
g13
NtRp529
(dp530
g16
g505
sg60
g61
(g62
(I0
tS'b'
tRp531
(I1
(I3
tg6
I00
S'\xd5\xb6\x8a&.{\x10@\xc7 \xb0\xe8J\xb9\xeb\xbf\xe0\xbd\x81\xaeu\xfc\xed@'
tbsg64
I01
sg65
g61
(g62
(I0
tS'b'
tRp532
(I1
(I3
tg67
I00
S'\x01\x01\x01'
tbsg68
I00
sbag8
(g12
g13
NtRp533
(dp534
g16
g505
sg60
g61
(g62
(I0
tS'b'
tRp535
(I1
(I3
tg6
I00
S'\xc0\xdfu(\xa9\x05\x12@;_\xda\xf9\x80\x07\xf7\xbf9\x961\x99)R\xe8@'
tbsg64
I01
sg65
g61
(g62
(I0
tS'b'
tRp536
(I1
(I3
tg67
I00
S'\x01\x01\x01'
tbsg68
I00
sbag8
(g12
g13
NtRp537
(dp538
g16
g505
sg60
g61
(g62
(I0
tS'b'
tRp539
(I1
(I3
tg6
I00
S'%\xdc\xe9\x18\xd6\xde\x12@.~b\xe5\xeb\xd6\xe8\xbf\x80\x0bc\xbe\xb3v\xea@'
tbsg64
I01
sg65
g61
(g62
(I0
tS'b'
tRp540
(I1
(I3
tg67
I00
S'\x01\x01\x01'
tbsg68
I00
sbag8
(g12
g13
NtRp541
(dp542
g16
g505
sg60
g61
(g62
(I0
tS'b'
tRp543
(I1
(I3
tg6
I00
S'\xa7|\xbeW\xbe\xcd\x15@\x85F-\x89[\xd0\xc8\xbfK\x0e\xfd\xf3\xa8\xfc\x01A'
tbsg64
I01
sg65
g61
(g62
(I0
tS'b'
tRp544
(I1
(I3
tg67
I00
S'\x01\x01\x01'
tbsg68
I00
sbag8
(g12
g13
NtRp545
(dp546
g16
g505
sg60
g61
(g62
(I0
tS'b'
tRp547
(I1
(I3
tg6
I00
S'y\x97g\x19YC\x17@\x87\xbb\x10\xfb\xa2`\xf6\xbf0\x12\xe0\xee]K\xe0@'
tbsg64
I01
sg65
g61
(g62
(I0
tS'b'
tRp548
(I1
(I3
tg67
I00
S'\x01\x01\x01'
tbsg68
I00
sbag8
(g12
g13
NtRp549
(dp550
g16
g505
sg60
g61
(g62
(I0
tS'b'
tRp551
(I1
(I3
tg6
I00
S'%\xc9\xe3\xe3\xa6k\x18@?}H\xf8\xf6\xc1\xec\xbfM\x0e#\xc4\x0bN\xf6@'
tbsg64
I01
sg65
g61
(g62
(I0
tS'b'
tRp552
(I1
(I3
tg67
I00
S'\x01\x01\x01'
tbsg68
I00
sbag8
(g12
g13
NtRp553
(dp554
g16
g505
sg60
g61
(g62
(I0
tS'b'
tRp555
(I1
(I3
tg6
I00
S'\xb1M9MY\x9e\x1a@;;3\xd1;X\xe0\xbf\xeeA\xbc*7\x00\x01A'
tbsg64
I01
sg65
g61
(g62
(I0
tS'b'
tRp556
(I1
(I3
tg67
I00
S'\x01\x01\x01'
tbsg68
I00
sbag8
(g12
g13
NtRp557
(dp558
g16
g505
sg60
g61
(g62
(I0
tS'b'
tRp559
(I1
(I3
tg6
I00
S'\x0e\x9d\x97\xe1\xef\x1a\x1c@\x95\xbf>\xdb\x19[\xef\xbf=\xcd0\xa41\xbb\xe4@'
tbsg64
I01
sg65
g61
(g62
(I0
tS'b'
tRp560
(I1
(I3
tg67
I00
S'\x01\x01\x01'
tbsg68
I00
sbatRp561
a(dp562
g60
g61
(g62
(I0
tS'b'
tRp563
(I1
(I0
tg6
I00
S''
tbsg64
I00
sg65
g61
(g62
(I0
tS'b'
tRp564
(I1
(I0
tg67
I00
S''
tbsg68
I00
sag4
(g6
S"`\xa6'\xc5\t\xe1\xc2?"
tRp565
aa(lp566
g4
(g6
S'\xbe\x8d\xbb,W\xa5\xb3@'
tRp567
ag8
(g9
g10
(lp568
g8
(g12
g13
NtRp569
(dp570
g16
g8
(g17
g13
NtRp571
(dp572
g20
F5
sg21
(dp573
g20
(F5
g23
tp574
sg25
(F21.299999
g23
tp575
sg27
(F4
g23
tp576
ssg27
F4
sg29
I3
sg25
F21.299999
sg30
g32
sg41
g42
sg48
g49
sg53
g54
sbsg60
g61
(g62
(I0
tS'b'
tRp577
(I1
(I3
tg6
I00
S'\xabf@\xf8[\x11\xf7?\xab\x90\xff\xff\xd6\xd9\xf2\xbf\x80\x92i\x1c\x18\xbc\xe1@'
tbsg64
I01
sg65
g61
(g62
(I0
tS'b'
tRp578
(I1
(I3
tg67
I00
S'\x01\x01\x01'
tbsg68
I00
sbag8
(g12
g13
NtRp579
(dp580
g16
g571
sg60
g61
(g62
(I0
tS'b'
tRp581
(I1
(I3
tg6
I00
S'-{W`\xaf\x81\x03@|/\xba\xb1\x19\x9b\xef\xbf\xd5m*Q\x93`\xf2@'
tbsg64
I01
sg65
g61
(g62
(I0
tS'b'
tRp582
(I1
(I3
tg67
I00
S'\x01\x01\x01'
tbsg68
I00
sbag8
(g12
g13
NtRp583
(dp584
g16
g571
sg60
g61
(g62
(I0
tS'b'
tRp585
(I1
(I3
tg6
I00
S'|\xd1\xf9\xa4\x97\xc0\x06@g\xd2&\x1dOf\xf6\xbf\xea\xf6\xbcUN\xd1\xd4@'
tbsg64
I01
sg65
g61
(g62
(I0
tS'b'
tRp586
(I1
(I3
tg67
I00
S'\x01\x01\x01'
tbsg68
I00
sbag8
(g12
g13
NtRp587
(dp588
g16
g571
sg60
g61
(g62
(I0
tS'b'
tRp589
(I1
(I3
tg6
I00
S'F[\xbcJF\xeb\x0c@~N[~\xbb\x19\xef\xbf\x18\x12\x1c\xe2\x8c\x11\xf2@'
tbsg64
I01
sg65
g61
(g62
(I0
tS'b'
tRp590
(I1
(I3
tg67
I00
S'\x01\x01\x01'
tbsg68
I00
sbag8
(g12
g13
NtRp591
(dp592
g16
g571
sg60
g61
(g62
(I0
tS'b'
tRp593
(I1
(I3
tg6
I00
S'F\x14N\xe1\x85r\x10@\x84\x04\x9fg\xddL\xee\xbfV\x11|\xfc\xe3k\xec@'
tbsg64
I01
sg65
g61
(g62
(I0
tS'b'
tRp594
(I1
(I3
tg67
I00
S'\x01\x01\x01'
tbsg68
I00
sbag8
(g12
g13
NtRp595
(dp596
g16
g571
sg60
g61
(g62
(I0
tS'b'
tRp597
(I1
(I3
tg6
I00
S'\xcc\xb3\x7fo\x1b,\x12@\xba\x17q\x81i\xa6\xf0\xbf3\xfe\xadl]\x8a\xf2@'
tbsg64
I01
sg65
g61
(g62
(I0
tS'b'
tRp598
(I1
(I3
tg67
I00
S'\x01\x01\x01'
tbsg68
I00
sbag8
(g12
g13
NtRp599
(dp600
g16
g571
sg60
g61
(g62
(I0
tS'b'
tRp601
(I1
(I3
tg6
I00
S'j\x13D\xf5\xfaU\x13@\xc3\x102\xea\xe8\xc1\xf1\xbf\xa6V\x86\xe3%\x80\xdd@'
tbsg64
I01
sg65
g61
(g62
(I0
tS'b'
tRp602
(I1
(I3
tg67
I00
S'\x01\x01\x01'
tbsg68
I00
sbag8
(g12
g13
NtRp603
(dp604
g16
g571
sg60
g61
(g62
(I0
tS'b'
tRp605
(I1
(I3
tg6
I00
S'\x91\xf2\x92\xb8\xcd\xb0\x14@\xbck\x86\xbb\x05B\xf5\xbfB\xd0\x05a\xc1\x96\xd8@'
tbsg64
I01
sg65
g61
(g62
(I0
tS'b'
tRp606
(I1
(I3
tg67
I00
S'\x01\x01\x01'
tbsg68
I00
sbag8
(g12
g13
NtRp607
(dp608
g16
g571
sg60
g61
(g62
(I0
tS'b'
tRp609
(I1
(I3
tg6
I00
S'\x1eJ\tav\xbd\x15@:kL\xf0s\xc9\xf0\xbf6vD\xf2\xee\x7f\xf4@'
tbsg64
I01
sg65
g61
(g62
(I0
tS'b'
tRp610
(I1
(I3
tg67
I00
S'\x01\x01\x01'
tbsg68
I00
sbag8
(g12
g13
NtRp611
(dp612
g16
g571
sg60
g61
(g62
(I0
tS'b'
tRp613
(I1
(I3
tg6
I00
S'\xc6\xda\x98id\x05\x17@\x12d\xd0\x1f\x85\xeb\xeb\xbfh-\xe1b\xf0\x1e\xf1@'
tbsg64
I01
sg65
g61
(g62
(I0
tS'b'
tRp614
(I1
(I3
tg67
I00
S'\x01\x01\x01'
tbsg68
I00
sbag8
(g12
g13
NtRp615
(dp616
g16
g571
sg60
g61
(g62
(I0
tS'b'
tRp617
(I1
(I3
tg6
I00
S'\xaa\xd3\xb2vop\x18@\x10\x8b\x90\xd2P9\xea\xbf\xd7!\x98\xc9\x8f\x04\xf7@'
tbsg64
I01
sg65
g61
(g62
(I0
tS'b'
tRp618
(I1
(I3
tg67
I00
S'\x01\x01\x01'
tbsg68
I00
sbag8
(g12
g13
NtRp619
(dp620
g16
g571
sg60
g61
(g62
(I0
tS'b'
tRp621
(I1
(I3
tg6
I00
S'm\x05\x0f\xa7s\x8d\x1a@\x84\xdd\xd5\xc9$h\xe5\xbf*\xbd\xa0\xc8\xa3\xd2\xfd@'
tbsg64
I01
sg65
g61
(g62
(I0
tS'b'
tRp622
(I1
(I3
tg67
I00
S'\x01\x01\x01'
tbsg68
I00
sbag8
(g12
g13
NtRp623
(dp624
g16
g571
sg60
g61
(g62
(I0
tS'b'
tRp625
(I1
(I3
tg6
I00
S'95i\xa7%\xfb\x1b@I6\t\xfe\x19^\xe7\xbf\x15 ;h\x05{\xec@'
tbsg64
I01
sg65
g61
(g62
(I0
tS'b'
tRp626
(I1
(I3
tg67
I00
S'\x01\x01\x01'
tbsg68
I00
sbatRp627
a(dp628
g60
g61
(g62
(I0
tS'b'
tRp629
(I1
(I0
tg6
I00
S''
tbsg64
I00
sg65
g61
(g62
(I0
tS'b'
tRp630
(I1
(I0
tg67
I00
S''
tbsg68
I00
sag4
(g6
S"`\xa6'\xc5\t\xe1\xc2?"
tRp631
aa(lp632
g4
(g6
S'f\xb9x`W\xcd\xb5@'
tRp633
ag8
(g9
g10
(lp634
g8
(g12
g13
NtRp635
(dp636
g16
g8
(g17
g13
NtRp637
(dp638
g20
F5
sg21
(dp639
g20
(F5
g23
tp640
sg25
(F21.299999
g23
tp641
sg27
(F4
g23
tp642
ssg27
F4
sg29
I3
sg25
F21.299999
sg30
g32
sg41
g42
sg48
g49
sg53
g54
sbsg60
g61
(g62
(I0
tS'b'
tRp643
(I1
(I3
tg6
I00
S'\x82\xf7\xa5\xc6I\x11\xf7?\xef@\xe3_\x9c\xd2\xf2\xbf\xdf\xb6]\\\xd6\xc2\xe1@'
tbsg64
I01
sg65
g61
(g62
(I0
tS'b'
tRp644
(I1
(I3
tg67
I00
S'\x01\x01\x01'
tbsg68
I00
sbag8
(g12
g13
NtRp645
(dp646
g16
g637
sg60
g61
(g62
(I0
tS'b'
tRp647
(I1
(I3
tg6
I00
S'n\xee1D\xab\x81\x03@Em\xb0\x86"\x9d\xef\xbfq\xeaKn)`\xf2@'
tbsg64
I01
sg65
g61
(g62
(I0
tS'b'
tRp648
(I1
(I3
tg67
I00
S'\x01\x01\x01'
tbsg68
I00
sbag8
(g12
g13
NtRp649
(dp650
g16
g637
sg60
g61
(g62
(I0
tS'b'
tRp651
(I1
(I3
tg6
I00
S'\xfd6\x832\xa6\xc0\x06@\xdf\xf9P\xfe\xcck\xf6\xbf\xb1\xe74JS\xdc\xd4@'
tbsg64
I01
sg65
g61
(g62
(I0
tS'b'
tRp652
(I1
(I3
tg67
I00
S'\x01\x01\x01'
tbsg68
I00
sbag8
(g12
g13
NtRp653
(dp654
g16
g637
sg60
g61
(g62
(I0
tS'b'
tRp655
(I1
(I3
tg6
I00
S'\xc9\xfb\x83\xeeB\xeb\x0c@J\x99eWF\x1a\xef\xbfC}\xfa\xee\x99\x11\xf2@'
tbsg64
I01
sg65
g61
(g62
(I0
tS'b'
tRp656
(I1
(I3
tg67
I00
S'\x01\x01\x01'
tbsg68
I00
sbag8
(g12
g13
NtRp657
(dp658
g16
g637
sg60
g61
(g62
(I0
tS'b'
tRp659
(I1
(I3
tg6
I00
S'W\xd8\n\xee\x1et\x10@\xbd\x1b\xc3\x15~\x8c\xee\xbf\xc9\xf6\x01\xb4KN\xec@'
tbsg64
I01
sg65
g61
(g62
(I0
tS'b'
tRp660
(I1
(I3
tg67
I00
S'\x01\x01\x01'
tbsg68
I00
sbag8
(g12
g13
NtRp661
(dp662
g16
g637
sg60
g61
(g62
(I0
tS'b'
tRp663
(I1
(I3
tg6
I00
S's\xeb\xcaj\xd6%\x12@\xa7c$g/U\xf1\xbf\xfb\x82\x1b\xf5\xca\xc0\xf1@'
tbsg64
I01
sg65
g61
(g62
(I0
tS'b'
tRp664
(I1
(I3
tg67
I00
S'\x01\x01\x01'
tbsg68
I00
sbag8
(g12
g13
NtRp665
(dp666
g16
g637
sg60
g61
(g62
(I0
tS'b'
tRp667
(I1
(I3
tg6
I00
S'\xdc\xc3\xb9\x03t=\x13@\x94\xf7\x88\xca\xa8\x9a\xf1\xbf{\xedQY\x14 \xde@'
tbsg64
I01
sg65
g61
(g62
(I0
tS'b'
tRp668
(I1
(I3
tg67
I00
S'\x01\x01\x01'
tbsg68
I00
sbag8
(g12
g13
NtRp669
(dp670
g16
g637
sg60
g61
(g62
(I0
tS'b'
tRp671
(I1
(I3
tg6
I00
S'\xcd\x18\x18\xcf\x8c\xc9\x15@\xa3\xd4\xc6,\xb4\xcd\xcd\xbfp\x83\xee\x80\xfe\xa6\x01A'
tbsg64
I01
sg65
g61
(g62
(I0
tS'b'
tRp672
(I1
(I3
tg67
I00
S'\x01\x01\x01'
tbsg68
I00
sbag8
(g12
g13
NtRp673
(dp674
g16
g637
sg60
g61
(g62
(I0
tS'b'
tRp675
(I1
(I3
tg6
I00
S';\xd8[\x82\x951\x17@I\xba\xfb0\x1bZ\xf7\xbfO:.PB-\xe3@'
tbsg64
I01
sg65
g61
(g62
(I0
tS'b'
tRp676
(I1
(I3
tg67
I00
S'\x01\x01\x01'
tbsg68
I00
sbag8
(g12
g13
NtRp677
(dp678
g16
g637
sg60
g61
(g62
(I0
tS'b'
tRp679
(I1
(I3
tg6
I00
S'\x8dz\xe1\x8c\xc4h\x18@\x03\xbb\x97\x8b\x995\xea\xbf\x12\x96G\xe7\xe1\xc3\xf7@'
tbsg64
I01
sg65
g61
(g62
(I0
tS'b'
tRp680
(I1
(I3
tg67
I00
S'\x01\x01\x01'
tbsg68
I00
sbag8
(g12
g13
NtRp681
(dp682
g16
g637
sg60
g61
(g62
(I0
tS'b'
tRp683
(I1
(I3
tg6
I00
S'\xe9l\xda\xe8l\x8d\x1a@g=r{\x03j\xe5\xbf\xf0\xe1\x8a\xec\xd8\xd0\xfd@'
tbsg64
I01
sg65
g61
(g62
(I0
tS'b'
tRp684
(I1
(I3
tg67
I00
S'\x01\x01\x01'
tbsg68
I00
sbag8
(g12
g13
NtRp685
(dp686
g16
g637
sg60
g61
(g62
(I0
tS'b'
tRp687
(I1
(I3
tg6
I00
S'\xa5\xc8tp\x16\xfb\x1b@@w\xbe-;[\xe7\xbf\x84\x1f\x04y\x10~\xec@'
tbsg64
I01
sg65
g61
(g62
(I0
tS'b'
tRp688
(I1
(I3
tg67
I00
S'\x01\x01\x01'
tbsg68
I00
sbatRp689
a(dp690
g60
g61
(g62
(I0
tS'b'
tRp691
(I1
(I0
tg6
I00
S''
tbsg64
I00
sg65
g61
(g62
(I0
tS'b'
tRp692
(I1
(I0
tg67
I00
S''
tbsg68
I00
sag4
(g6
S"`\xa6'\xc5\t\xe1\xc2?"
tRp693
aa(lp694
g4
(g6
S'\x0e\xe55\x94W\xf5\xb7@'
tRp695
ag8
(g9
g10
(lp696
g8
(g12
g13
NtRp697
(dp698
g16
g8
(g17
g13
NtRp699
(dp700
g20
F5
sg21
(dp701
g20
(F5
g23
tp702
sg25
(F21.299999
g23
tp703
sg27
(F4
g23
tp704
ssg27
F4
sg29
I3
sg25
F21.299999
sg30
g32
sg41
g42
sg48
g49
sg53
g54
sbsg60
g61
(g62
(I0
tS'b'
tRp705
(I1
(I3
tg6
I00
S'$\x90\xde\xf3\x96\x0e\xf7?\x94\xc4\xfc\xeaT\xde\xf2\xbf\x11\x1d\x08\x97\x15\xd7\xe1@'
tbsg64
I01
sg65
g61
(g62
(I0
tS'b'
tRp706
(I1
(I3
tg67
I00
S'\x01\x01\x01'
tbsg68
I00
sbag8
(g12
g13
NtRp707
(dp708
g16
g699
sg60
g61
(g62
(I0
tS'b'
tRp709
(I1
(I3
tg6
I00
S'\xcd\xab\xaef\x83\x82\x03@E\xe8S\xa3g\xb6\xef\xbf\xf7&!2\xf4\\\xf2@'
tbsg64
I01
sg65
g61
(g62
(I0
tS'b'
tRp710
(I1
(I3
tg67
I00
S'\x01\x01\x01'
tbsg68
I00
sbag8
(g12
g13
NtRp711
(dp712
g16
g699
sg60
g61
(g62
(I0
tS'b'
tRp713
(I1
(I3
tg6
I00
S'16U\x1aq\xc0\x06@\xb6a\xd4gU\x10\xf6\xbf\x1b\xd0\x9a\x9dw\x7f\xd4@'
tbsg64
I01
sg65
g61
(g62
(I0
tS'b'
tRp714
(I1
(I3
tg67
I00
S'\x01\x01\x01'
tbsg68
I00
sbag8
(g12
g13
NtRp715
(dp716
g16
g699
sg60
g61
(g62
(I0
tS'b'
tRp717
(I1
(I3
tg6
I00
S'6\x0b\x98\xb5\x01\xea\x0c@\x93J\xb5&c!\xef\xbf\xd6\x9d\x9b\x9a|\x0f\xf2@'
tbsg64
I01
sg65
g61
(g62
(I0
tS'b'
tRp718
(I1
(I3
tg67
I00
S'\x01\x01\x01'
tbsg68
I00
sbag8
(g12
g13
NtRp719
(dp720
g16
g699
sg60
g61
(g62
(I0
tS'b'
tRp721
(I1
(I3
tg6
I00
S'\xdb\x88\xae\x97ss\x10@\xdf\xe8\xca5\xed\xeb\xee\xbf\xc7\xb5\\p\n\x18\xec@'
tbsg64
I01
sg65
g61
(g62
(I0
tS'b'
tRp722
(I1
(I3
tg67
I00
S'\x01\x01\x01'
tbsg68
I00
sbag8
(g12
g13
NtRp723
(dp724
g16
g699
sg60
g61
(g62
(I0
tS'b'
tRp725
(I1
(I3
tg6
I00
S'=\x0e\x02\xc9\xcb(\x12@\xd6[L_\x1b\xdc\xf0\xbf\xb5%\x90\x91\xfcK\xf2@'
tbsg64
I01
sg65
g61
(g62
(I0
tS'b'
tRp726
(I1
(I3
tg67
I00
S'\x01\x01\x01'
tbsg68
I00
sbag8
(g12
g13
NtRp727
(dp728
g16
g699
sg60
g61
(g62
(I0
tS'b'
tRp729
(I1
(I3
tg6
I00
S'\xa3t}lCD\x13@\x8c\xed\xdd\xf6Br\xf2\xbf`a\x9f2\xc4-\xdc@'
tbsg64
I01
sg65
g61
(g62
(I0
tS'b'
tRp730
(I1
(I3
tg67
I00
S'\x01\x01\x01'
tbsg68
I00
sbag8
(g12
g13
NtRp731
(dp732
g16
g699
sg60
g61
(g62
(I0
tS'b'
tRp733
(I1
(I3
tg6
I00
S'\x18E\x0b\x8a\xc7\xca\x15@0F\x1b\xa3~\x90\xcd\xbf\xe3mM%\xdb\xaf\x01A'
tbsg64
I01
sg65
g61
(g62
(I0
tS'b'
tRp734
(I1
(I3
tg67
I00
S'\x01\x01\x01'
tbsg68
I00
sbag8
(g12
g13
NtRp735
(dp736
g16
g699
sg60
g61
(g62
(I0
tS'b'
tRp737
(I1
(I3
tg6
I00
S'\xd1\r\x8a\xbf\xf76\x17@3\xcd^P=\x92\xf6\xbfF\x0e\xacb\xde\x85\xdf@'
tbsg64
I01
sg65
g61
(g62
(I0
tS'b'
tRp738
(I1
(I3
tg67
I00
S'\x01\x01\x01'
tbsg68
I00
sbag8
(g12
g13
NtRp739
(dp740
g16
g699
sg60
g61
(g62
(I0
tS'b'
tRp741
(I1
(I3
tg6
I00
S'A.\xaf=Ui\x18@&]\xc6\x9co\x08\xea\xbfx\x9b\xc35\x19\xcf\xf7@'
tbsg64
I01
sg65
g61
(g62
(I0
tS'b'
tRp742
(I1
(I3
tg67
I00
S'\x01\x01\x01'
tbsg68
I00
sbag8
(g12
g13
NtRp743
(dp744
g16
g699
sg60
g61
(g62
(I0
tS'b'
tRp745
(I1
(I3
tg6
I00
S'<%$\xf8\xab\x8c\x1a@\xb0\xc8;\xad\x9a\x9f\xe5\xbfJK>\xffm\x95\xfd@'
tbsg64
I01
sg65
g61
(g62
(I0
tS'b'
tRp746
(I1
(I3
tg67
I00
S'\x01\x01\x01'
tbsg68
I00
sbag8
(g12
g13
NtRp747
(dp748
g16
g699
sg60
g61
(g62
(I0
tS'b'
tRp749
(I1
(I3
tg6
I00
S'\xbfM\x94:\x83\xf9\x1b@*\x88\xb583\x16\xe7\xbf\xbbxw\xf5\xe3\xe8\xec@'
tbsg64
I01
sg65
g61
(g62
(I0
tS'b'
tRp750
(I1
(I3
tg67
I00
S'\x01\x01\x01'
tbsg68
I00
sbatRp751
a(dp752
g60
g61
(g62
(I0
tS'b'
tRp753
(I1
(I0
tg6
I00
S''
tbsg64
I00
sg65
g61
(g62
(I0
tS'b'
tRp754
(I1
(I0
tg67
I00
S''
tbsg68
I00
sag4
(g6
S"`\xa6'\xc5\t\xe1\xc2?"
tRp755
aa(lp756
g4
(g6
S'\xb5\x10\xf3\xc7W\x1d\xba@'
tRp757
ag8
(g9
g10
(lp758
g8
(g12
g13
NtRp759
(dp760
g16
g8
(g17
g13
NtRp761
(dp762
g20
F5
sg21
(dp763
g20
(F5
g23
tp764
sg25
(F21.299999
g23
tp765
sg27
(F4
g23
tp766
ssg27
F4
sg29
I3
sg25
F21.299999
sg30
g32
sg41
g42
sg48
g49
sg53
g54
sbsg60
g61
(g62
(I0
tS'b'
tRp767
(I1
(I3
tg6
I00
S'w\xe5\x14\x8e\xff\x1d\xf7?\xc9\x82\x08\xd3x\xb7\xf2\xbf\xa9\xe0\xc3}\x1a\xca\xe1@'
tbsg64
I01
sg65
g61
(g62
(I0
tS'b'
tRp768
(I1
(I3
tg67
I00
S'\x01\x01\x01'
tbsg68
I00
sbag8
(g12
g13
NtRp769
(dp770
g16
g761
sg60
g61
(g62
(I0
tS'b'
tRp771
(I1
(I3
tg6
I00
S'\xf8\x869\xf5\x89\x81\x03@\x9e\xff\xfa|7\x93\xef\xbfXl\tT\xabc\xf2@'
tbsg64
I01
sg65
g61
(g62
(I0
tS'b'
tRp772
(I1
(I3
tg67
I00
S'\x01\x01\x01'
tbsg68
I00
sbag8
(g12
g13
NtRp773
(dp774
g16
g761
sg60
g61
(g62
(I0
tS'b'
tRp775
(I1
(I3
tg6
I00
S'\x99\xf8eT\x13\xbe\x06@\xc5\xfe\xf5\x13\xf3\x0e\xf6\xbfC\xc2Ow\xdd\x9e\xd4@'
tbsg64
I01
sg65
g61
(g62
(I0
tS'b'
tRp776
(I1
(I3
tg67
I00
S'\x01\x01\x01'
tbsg68
I00
sbag8
(g12
g13
NtRp777
(dp778
g16
g761
sg60
g61
(g62
(I0
tS'b'
tRp779
(I1
(I3
tg6
I00
S'Tr\xd4+\x88\xeb\x0c@"k\x92-\x82\x1b\xef\xbf\xf0\xa5\xb3$\xaa\x12\xf2@'
tbsg64
I01
sg65
g61
(g62
(I0
tS'b'
tRp780
(I1
(I3
tg67
I00
S'\x01\x01\x01'
tbsg68
I00
sbag8
(g12
g13
NtRp781
(dp782
g16
g761
sg60
g61
(g62
(I0
tS'b'
tRp783
(I1
(I3
tg6
I00
S'\x0bc{\x92Xs\x10@\x1d\xc0\x08*\x0f\xc9\xed\xbfG\x1d\xcd\x83}\xa6\xec@'
tbsg64
I01
sg65
g61
(g62
(I0
tS'b'
tRp784
(I1
(I3
tg67
I00
S'\x01\x01\x01'
tbsg68
I00
sbag8
(g12
g13
NtRp785
(dp786
g16
g761
sg60
g61
(g62
(I0
tS'b'
tRp787
(I1
(I3
tg6
I00
S'O/\xeb\xad\xfd-\x12@\xbdi\x12\x87f\xe1\xf0\xbf\x92M0Y\x93\xaf\xf2@'
tbsg64
I01
sg65
g61
(g62
(I0
tS'b'
tRp788
(I1
(I3
tg67
I00
S'\x01\x01\x01'
tbsg68
I00
sbag8
(g12
g13
NtRp789
(dp790
g16
g761
sg60
g61
(g62
(I0
tS'b'
tRp791
(I1
(I3
tg6
I00
S'\xf9\xf6k^\xbdC\x13@\xff.\xa3w\x03\xed\xf6\xbf\xdb\xc63\xdb\xf7\xfd\xd7@'
tbsg64
I01
sg65
g61
(g62
(I0
tS'b'
tRp792
(I1
(I3
tg67
I00
S'\x01\x01\x01'
tbsg68
I00
sbag8
(g12
g13
NtRp793
(dp794
g16
g761
sg60
g61
(g62
(I0
tS'b'
tRp795
(I1
(I3
tg6
I00
S'\t\x10B\\\x0b\xc0\x15@\xcb\xbd\xf2\xcca\xfe\xd7\xbfEoH\xf7\xc6\x82\x00A'
tbsg64
I01
sg65
g61
(g62
(I0
tS'b'
tRp796
(I1
(I3
tg67
I00
S'\x01\x01\x01'
tbsg68
I00
sbag8
(g12
g13
NtRp797
(dp798
g16
g761
sg60
g61
(g62
(I0
tS'b'
tRp799
(I1
(I3
tg6
I00
S'h\x9a\x15\x0f\x0e"\x17@-\xf7D\xf3\xe1+\xf7\xbf\xb6\xbe\xc7\x1b\x16\xe1\xe0@'
tbsg64
I01
sg65
g61
(g62
(I0
tS'b'
tRp800
(I1
(I3
tg67
I00
S'\x01\x01\x01'
tbsg68
I00
sbag8
(g12
g13
NtRp801
(dp802
g16
g761
sg60
g61
(g62
(I0
tS'b'
tRp803
(I1
(I3
tg6
I00
S'\xf1\x01\xa6w\x16a\x18@Q\xec[/iC\xe7\xbfO;\xc8@\x89g\xf9@'
tbsg64
I01
sg65
g61
(g62
(I0
tS'b'
tRp804
(I1
(I3
tg67
I00
S'\x01\x01\x01'
tbsg68
I00
sbag8
(g12
g13
NtRp805
(dp806
g16
g761
sg60
g61
(g62
(I0
tS'b'
tRp807
(I1
(I3
tg6
I00
S'\xda%$\x92[\x8c\x1a@\xd7\xaf\xa6\xa2m\xdb\xe5\xbfR\x13\x14P\xcbx\xfd@'
tbsg64
I01
sg65
g61
(g62
(I0
tS'b'
tRp808
(I1
(I3
tg67
I00
S'\x01\x01\x01'
tbsg68
I00
sbag8
(g12
g13
NtRp809
(dp810
g16
g761
sg60
g61
(g62
(I0
tS'b'
tRp811
(I1
(I3
tg6
I00
S'\xf6\x95$\x17 \xf8\x1b@\xe1g\xa0V\xbd\xcb\xe6\xbfY\xaa\xa0\xfb\\\x16\xed@'
tbsg64
I01
sg65
g61
(g62
(I0
tS'b'
tRp812
(I1
(I3
tg67
I00
S'\x01\x01\x01'
tbsg68
I00
sbatRp813
a(dp814
g60
g61
(g62
(I0
tS'b'
tRp815
(I1
(I0
tg6
I00
S''
tbsg64
I00
sg65
g61
(g62
(I0
tS'b'
tRp816
(I1
(I0
tg67
I00
S''
tbsg68
I00
sag4
(g6
S"`\xa6'\xc5\t\xe1\xc2?"
tRp817
aa(lp818
g4
(g6
S']<\xb0\xfbWE\xbc@'
tRp819
ag8
(g9
g10
(lp820
g8
(g12
g13
NtRp821
(dp822
g16
g8
(g17
g13
NtRp823
(dp824
g20
F5
sg21
(dp825
g20
(F5
g23
tp826
sg25
(F21.299999
g23
tp827
sg27
(F4
g23
tp828
ssg27
F4
sg29
I3
sg25
F21.299999
sg30
g32
sg41
g42
sg48
g49
sg53
g54
sbsg60
g61
(g62
(I0
tS'b'
tRp829
(I1
(I3
tg6
I00
S'8\xc0\xb3P\xc7\x0e\xf7?\xefe\xd2[\xe7\xce\xf2\xbf\x81\xb9h\x88\xa8\xcf\xe1@'
tbsg64
I01
sg65
g61
(g62
(I0
tS'b'
tRp830
(I1
(I3
tg67
I00
S'\x01\x01\x01'
tbsg68
I00
sbag8
(g12
g13
NtRp831
(dp832
g16
g823
sg60
g61
(g62
(I0
tS'b'
tRp833
(I1
(I3
tg6
I00
S"S;\xe0y\xcf\x82\x03@l\x00\x0b\xf4\xbf\x14\xf0\xbf4\xc7\xb6'*>\xf2@"
tbsg64
I01
sg65
g61
(g62
(I0
tS'b'
tRp834
(I1
(I3
tg67
I00
S'\x01\x01\x01'
tbsg68
I00
sbag8
(g12
g13
NtRp835
(dp836
g16
g823
sg60
g61
(g62
(I0
tS'b'
tRp837
(I1
(I3
tg6
I00
S'\x11*f\\\xc5\xbd\x06@\xe9i\xa7\xad\x89\x7f\xf4\xbf\x89\xde\xbf\n\xd2:\xd5@'
tbsg64
I01
sg65
g61
(g62
(I0
tS'b'
tRp838
(I1
(I3
tg67
I00
S'\x01\x01\x01'
tbsg68
I00
sbag8
(g12
g13
NtRp839
(dp840
g16
g823
sg60
g61
(g62
(I0
tS'b'
tRp841
(I1
(I3
tg6
I00
S'9[5U\x96\xe9\x0c@.u\x03U\xdco\xef\xbfY\x83\xc0E\xe2\xf6\xf1@'
tbsg64
I01
sg65
g61
(g62
(I0
tS'b'
tRp842
(I1
(I3
tg67
I00
S'\x01\x01\x01'
tbsg68
I00
sbag8
(g12
g13
NtRp843
(dp844
g16
g823
sg60
g61
(g62
(I0
tS'b'
tRp845
(I1
(I3
tg6
I00
S'\x1eKBV\x1ev\x10@IS\xed~\xb1\x03\xee\xbf\x9d4&\\B\xb2\xec@'
tbsg64
I01
sg65
g61
(g62
(I0
tS'b'
tRp846
(I1
(I3
tg67
I00
S'\x01\x01\x01'
tbsg68
I00
sbag8
(g12
g13
NtRp847
(dp848
g16
g823
sg60
g61
(g62
(I0
tS'b'
tRp849
(I1
(I3
tg6
I00
S'\xfe\xfe\x9c<,\x13\x12@\x8c\xfd\xa8ULV\xf3\xbf\xe0\xd5\x96\xea\x95\xfb\xeb@'
tbsg64
I01
sg65
g61
(g62
(I0
tS'b'
tRp850
(I1
(I3
tg67
I00
S'\x01\x01\x01'
tbsg68
I00
sbag8
(g12
g13
NtRp851
(dp852
g16
g823
sg60
g61
(g62
(I0
tS'b'
tRp853
(I1
(I3
tg6
I00
S'\xce%\xcahJ\x0b\x13@\x85\x04e\xe4o\xc2\xe6\xbf\x1fI\xc6,\xadO\xe7@'
tbsg64
I01
sg65
g61
(g62
(I0
tS'b'
tRp854
(I1
(I3
tg67
I00
S'\x01\x01\x01'
tbsg68
I00
sbag8
(g12
g13
NtRp855
(dp856
g16
g823
sg60
g61
(g62
(I0
tS'b'
tRp857
(I1
(I3
tg6
I00
S'\x7fU\x1a\xdf\xec\xca\x15@Y%\xb9\r\xc8\xd8\xd3\xbf\x07(\x0ehs#\x01A'
tbsg64
I01
sg65
g61
(g62
(I0
tS'b'
tRp858
(I1
(I3
tg67
I00
S'\x01\x01\x01'
tbsg68
I00
sbag8
(g12
g13
NtRp859
(dp860
g16
g823
sg60
g61
(g62
(I0
tS'b'
tRp861
(I1
(I3
tg6
I00
S'c0\xa8\xee\xe04\x17@\x84\xc3C\xb2\x160\xf7\xbf\xf6\xf7\xc7\xf1\x14?\xe2@'
tbsg64
I01
sg65
g61
(g62
(I0
tS'b'
tRp862
(I1
(I3
tg67
I00
S'\x01\x01\x01'
tbsg68
I00
sbag8
(g12
g13
NtRp863
(dp864
g16
g823
sg60
g61
(g62
(I0
tS'b'
tRp865
(I1
(I3
tg6
I00
S'\xc7\xb6\x1cq!h\x18@\x92\xacU\xc8K&\xeb\xbfk\x16\xaf5@P\xf7@'
tbsg64
I01
sg65
g61
(g62
(I0
tS'b'
tRp866
(I1
(I3
tg67
I00
S'\x01\x01\x01'
tbsg68
I00
sbag8
(g12
g13
NtRp867
(dp868
g16
g823
sg60
g61
(g62
(I0
tS'b'
tRp869
(I1
(I3
tg6
I00
S'*k\xa6\xf8u\x95\x1a@\xe1\x18l-y\xe7\xe2\xbft\xc8}\x86\xec\xf6\xff@'
tbsg64
I01
sg65
g61
(g62
(I0
tS'b'
tRp870
(I1
(I3
tg67
I00
S'\x01\x01\x01'
tbsg68
I00
sbag8
(g12
g13
NtRp871
(dp872
g16
g823
sg60
g61
(g62
(I0
tS'b'
tRp873
(I1
(I3
tg6
I00
S'f\xd4\xff=\x97\x0c\x1c@Q\xee~2\xf7R\xeb\xbf\xc5\x85\xb6\xb1U\xa9\xe8@'
tbsg64
I01
sg65
g61
(g62
(I0
tS'b'
tRp874
(I1
(I3
tg67
I00
S'\x01\x01\x01'
tbsg68
I00
sbatRp875
a(dp876
g60
g61
(g62
(I0
tS'b'
tRp877
(I1
(I0
tg6
I00
S''
tbsg64
I00
sg65
g61
(g62
(I0
tS'b'
tRp878
(I1
(I0
tg67
I00
S''
tbsg68
I00
sag4
(g6
S"`\xa6'\xc5\t\xe1\xc2?"
tRp879
aa(lp880
g4
(g6
S'\x05hm/Xm\xbe@'
tRp881
ag8
(g9
g10
(lp882
g8
(g12
g13
NtRp883
(dp884
g16
g8
(g17
g13
NtRp885
(dp886
g20
F5
sg21
(dp887
g20
(F5
g23
tp888
sg25
(F21.299999
g23
tp889
sg27
(F4
g23
tp890
ssg27
F4
sg29
I3
sg25
F21.299999
sg30
g32
sg41
g42
sg48
g49
sg53
g54
sbsg60
g61
(g62
(I0
tS'b'
tRp891
(I1
(I3
tg6
I00
S'\x80\xd6\x1e\xf1\x84\x11\xf7?p\x98m\\A\xaf\xf2\xbf\xfa\x00\xf3\x80i\xec\xe1@'
tbsg64
I01
sg65
g61
(g62
(I0
tS'b'
tRp892
(I1
(I3
tg67
I00
S'\x01\x01\x01'
tbsg68
I00
sbag8
(g12
g13
NtRp893
(dp894
g16
g885
sg60
g61
(g62
(I0
tS'b'
tRp895
(I1
(I3
tg6
I00
S'?-/j\xbb\x81\x03@\x87s@\x19x\xe4\xef\xbfS/\xbd\x83PL\xf2@'
tbsg64
I01
sg65
g61
(g62
(I0
tS'b'
tRp896
(I1
(I3
tg67
I00
S'\x01\x01\x01'
tbsg68
I00
sbag8
(g12
g13
NtRp897
(dp898
g16
g885
sg60
g61
(g62
(I0
tS'b'
tRp899
(I1
(I3
tg6
I00
S'\x84J\x80\xc6\xf1\xbd\x06@\x88\xf6)\xa1L\xa8\xf5\xbf\x8e\x16\x1eH\n\x88\xd4@'
tbsg64
I01
sg65
g61
(g62
(I0
tS'b'
tRp900
(I1
(I3
tg67
I00
S'\x01\x01\x01'
tbsg68
I00
sbag8
(g12
g13
NtRp901
(dp902
g16
g885
sg60
g61
(g62
(I0
tS'b'
tRp903
(I1
(I3
tg6
I00
S'\xe8\xdfpD\xbe\xea\x0c@\xfc\x11\xe9\xe9\xb5\xbc\xef\xbf\x92p\xcbN\xff\xeb\xf1@'
tbsg64
I01
sg65
g61
(g62
(I0
tS'b'
tRp904
(I1
(I3
tg67
I00
S'\x01\x01\x01'
tbsg68
I00
sbag8
(g12
g13
NtRp905
(dp906
g16
g885
sg60
g61
(g62
(I0
tS'b'
tRp907
(I1
(I3
tg6
I00
S'.{\n\x8f\x03y\x10@\x1e\xe9Q\xad\xac\xd1\xeb\xbf\xa1\x9a\x96\xfcE\n\xee@'
tbsg64
I01
sg65
g61
(g62
(I0
tS'b'
tRp908
(I1
(I3
tg67
I00
S'\x01\x01\x01'
tbsg68
I00
sbag8
(g12
g13
NtRp909
(dp910
g16
g885
sg60
g61
(g62
(I0
tS'b'
tRp911
(I1
(I3
tg6
I00
S'uo\xb0e\xbd\x11\x12@\xfeDG>E\x88\xf5\xbf\xb1\x14\xb6B\xd6j\xeb@'
tbsg64
I01
sg65
g61
(g62
(I0
tS'b'
tRp912
(I1
(I3
tg67
I00
S'\x01\x01\x01'
tbsg68
I00
sbag8
(g12
g13
NtRp913
(dp914
g16
g885
sg60
g61
(g62
(I0
tS'b'
tRp915
(I1
(I3
tg6
I00
S'\xf6P\xc3\x08\xe6\xff\x12@\xad\xf8q\xc1\x00\xee\xee\xbf<b\xc4\x86"\xc8\xe4@'
tbsg64
I01
sg65
g61
(g62
(I0
tS'b'
tRp916
(I1
(I3
tg67
I00
S'\x01\x01\x01'
tbsg68
I00
sbag8
(g12
g13
NtRp917
(dp918
g16
g885
sg60
g61
(g62
(I0
tS'b'
tRp919
(I1
(I3
tg6
I00
S'\xb2\x81\xfc\xdd\xdd\xc8\x15@m<\xeb\xc3\xbf\xb3\xca\xbfV\x7f|\xd0r\xb3\x01A'
tbsg64
I01
sg65
g61
(g62
(I0
tS'b'
tRp920
(I1
(I3
tg67
I00
S'\x01\x01\x01'
tbsg68
I00
sbag8
(g12
g13
NtRp921
(dp922
g16
g885
sg60
g61
(g62
(I0
tS'b'
tRp923
(I1
(I3
tg6
I00
S'~&\xef\xbdEr\x17@Uu\x07q\xa6\x8a\xef\xbf\xc8\x89o\x0f$\xf3\xea@'
tbsg64
I01
sg65
g61
(g62
(I0
tS'b'
tRp924
(I1
(I3
tg67
I00
S'\x01\x01\x01'
tbsg68
I00
sbag8
(g12
g13
NtRp925
(dp926
g16
g885
sg60
g61
(g62
(I0
tS'b'
tRp927
(I1
(I3
tg6
I00
S'\xa7\x91~\xf0a{\x18@X\xc5\x9f\xf8+^\xf5\xbfQ8\xb2\x8e\t\xb5\xec@'
tbsg64
I01
sg65
g61
(g62
(I0
tS'b'
tRp928
(I1
(I3
tg67
I00
S'\x01\x01\x01'
tbsg68
I00
sbag8
(g12
g13
NtRp929
(dp930
g16
g885
sg60
g61
(g62
(I0
tS'b'
tRp931
(I1
(I3
tg6
I00
S'X\x99\x8c\x14\x06\xd2\x1a@\n|>]\xa3W\xd6?_\x1d\x01\x10\xff\xab\x07A'
tbsg64
I01
sg65
g61
(g62
(I0
tS'b'
tRp932
(I1
(I3
tg67
I00
S'\x01\x01\x01'
tbsg68
I00
sbatRp933
a(dp934
g60
g61
(g62
(I0
tS'b'
tRp935
(I1
(I0
tg6
I00
S''
tbsg64
I00
sg65
g61
(g62
(I0
tS'b'
tRp936
(I1
(I0
tg67
I00
S''
tbsg68
I00
sag4
(g6
S"`\xa6'\xc5\t\xe1\xc2?"
tRp937
aa(lp938
g4
(g6
S'\xd6I\x951\xacJ\xc0@'
tRp939
ag8
(g9
g10
(lp940
g8
(g12
g13
NtRp941
(dp942
g16
g8
(g17
g13
NtRp943
(dp944
g20
F5
sg21
(dp945
g20
(F5
g23
tp946
sg25
(F21.299999
g23
tp947
sg27
(F4
g23
tp948
ssg27
F4
sg29
I3
sg25
F21.299999
sg30
g32
sg41
g42
sg48
g49
sg53
g54
sbsg60
g61
(g62
(I0
tS'b'
tRp949
(I1
(I3
tg6
I00
S'\x0f\r\x8d\xb4\x03\x12\xf7?\xa4\xc4v\x1b\xa2\xb4\xf2\xbf\xab\xa1\xbf\xe6x\xe8\xe1@'
tbsg64
I01
sg65
g61
(g62
(I0
tS'b'
tRp950
(I1
(I3
tg67
I00
S'\x01\x01\x01'
tbsg68
I00
sbag8
(g12
g13
NtRp951
(dp952
g16
g943
sg60
g61
(g62
(I0
tS'b'
tRp953
(I1
(I3
tg6
I00
S'\x1d;6(\xd0\x81\x03@\x06\xe9YIW\xd0\xef\xbf\x93\xc8\x8ct\xbbS\xf2@'
tbsg64
I01
sg65
g61
(g62
(I0
tS'b'
tRp954
(I1
(I3
tg67
I00
S'\x01\x01\x01'
tbsg68
I00
sbag8
(g12
g13
NtRp955
(dp956
g16
g943
sg60
g61
(g62
(I0
tS'b'
tRp957
(I1
(I3
tg6
I00
S'\xc9\x12\x1f1\xc1\xbd\x06@\xf2j\x81Q|\xaa\xf5\xbfg\x1d\x0e\xa6\xbd\x87\xd4@'
tbsg64
I01
sg65
g61
(g62
(I0
tS'b'
tRp958
(I1
(I3
tg67
I00
S'\x01\x01\x01'
tbsg68
I00
sbag8
(g12
g13
NtRp959
(dp960
g16
g943
sg60
g61
(g62
(I0
tS'b'
tRp961
(I1
(I3
tg6
I00
S'\x9b\xf42A\xf4\xea\x0c@z;\x8882\x93\xef\xbf%\xd1\xaf J\xfc\xf1@'
tbsg64
I01
sg65
g61
(g62
(I0
tS'b'
tRp962
(I1
(I3
tg67
I00
S'\x01\x01\x01'
tbsg68
I00
sbag8
(g12
g13
NtRp963
(dp964
g16
g943
sg60
g61
(g62
(I0
tS'b'
tRp965
(I1
(I3
tg6
I00
S'd\x88\xd1p\xe0x\x10@(\xa5<\xce\x14\xdc\xeb\xbf\xbfC\x1e\xd3v\xfe\xed@'
tbsg64
I01
sg65
g61
(g62
(I0
tS'b'
tRp966
(I1
(I3
tg67
I00
S'\x01\x01\x01'
tbsg68
I00
sbag8
(g12
g13
NtRp967
(dp968
g16
g943
sg60
g61
(g62
(I0
tS'b'
tRp969
(I1
(I3
tg6
I00
S'\xc4\xf0\xa9\xb1\xac\x11\x12@G\xb4\xbf\xf8yR\xf5\xbf\xb9\x0e\xc8N^\x94\xeb@'
tbsg64
I01
sg65
g61
(g62
(I0
tS'b'
tRp970
(I1
(I3
tg67
I00
S'\x01\x01\x01'
tbsg68
I00
sbag8
(g12
g13
NtRp971
(dp972
g16
g943
sg60
g61
(g62
(I0
tS'b'
tRp973
(I1
(I3
tg6
I00
S'\xc5\xd55(\xa1\x01\x13@\xb7"I\x82\x94T\xee\xbf\xd5N%\xb6p\xf7\xe4@'
tbsg64
I01
sg65
g61
(g62
(I0
tS'b'
tRp974
(I1
(I3
tg67
I00
S'\x01\x01\x01'
tbsg68
I00
sbag8
(g12
g13
NtRp975
(dp976
g16
g943
sg60
g61
(g62
(I0
tS'b'
tRp977
(I1
(I3
tg6
I00
S'\xc7\xef\x19\xe85\xc6\x15@\x9a\x85m0\xe1&\xd0\xbf\xfcd5\xa6\xabV\x01A'
tbsg64
I01
sg65
g61
(g62
(I0
tS'b'
tRp978
(I1
(I3
tg67
I00
S'\x01\x01\x01'
tbsg68
I00
sbag8
(g12
g13
NtRp979
(dp980
g16
g943
sg60
g61
(g62
(I0
tS'b'
tRp981
(I1
(I3
tg6
I00
S'\x991\xf4qTp\x17@\xdc\xd1\xde\xc1\x03\xa1\xee\xbf\x86K\xe7\xe6\x8f7\xec@'
tbsg64
I01
sg65
g61
(g62
(I0
tS'b'
tRp982
(I1
(I3
tg67
I00
S'\x01\x01\x01'
tbsg68
I00
sbag8
(g12
g13
NtRp983
(dp984
g16
g943
sg60
g61
(g62
(I0
tS'b'
tRp985
(I1
(I3
tg6
I00
S'J\x0b\xfch\x1e|\x18@\xe8\x8a\xdc\x1b\x88C\xf5\xbf\t7\x90\x92Z\xaf\xec@'
tbsg64
I01
sg65
g61
(g62
(I0
tS'b'
tRp986
(I1
(I3
tg67
I00
S'\x01\x01\x01'
tbsg68
I00
sbag8
(g12
g13
NtRp987
(dp988
g16
g943
sg60
g61
(g62
(I0
tS'b'
tRp989
(I1
(I3
tg6
I00
S'\x02\xaa\x01\x93[\xd3\x1a@\x03:u\xb9ip\xd4?;\xb18)\xe0}\x07A'
tbsg64
I01
sg65
g61
(g62
(I0
tS'b'
tRp990
(I1
(I3
tg67
I00
S'\x01\x01\x01'
tbsg68
I00
sbatRp991
a(dp992
g60
g61
(g62
(I0
tS'b'
tRp993
(I1
(I0
tg6
I00
S''
tbsg64
I00
sg65
g61
(g62
(I0
tS'b'
tRp994
(I1
(I0
tg67
I00
S''
tbsg68
I00
sag4
(g6
S"`\xa6'\xc5\t\xe1\xc2?"
tRp995
aa(lp996
g4
(g6
S'\xaa\xdfsK\xac^\xc1@'
tRp997
ag8
(g9
g10
(lp998
g8
(g12
g13
NtRp999
(dp1000
g16
g8
(g17
g13
NtRp1001
(dp1002
g20
F5
sg21
(dp1003
g20
(F5
g23
tp1004
sg25
(F21.299999
g23
tp1005
sg27
(F4
g23
tp1006
ssg27
F4
sg29
I3
sg25
F21.299999
sg30
g32
sg41
g42
sg48
g49
sg53
g54
sbsg60
g61
(g62
(I0
tS'b'
tRp1007
(I1
(I3
tg6
I00
S'\xb1\xb3\x90\xb2\x95\x10\xf7?\xb3\xf3\xf8nF\xba\xf2\xbf\xbc\xc2\xf1\xd8\xb0\xdc\xe1@'
tbsg64
I01
sg65
g61
(g62
(I0
tS'b'
tRp1008
(I1
(I3
tg67
I00
S'\x01\x01\x01'
tbsg68
I00
sbag8
(g12
g13
NtRp1009
(dp1010
g16
g1001
sg60
g61
(g62
(I0
tS'b'
tRp1011
(I1
(I3
tg6
I00
S'g\xb50J\n\x82\x03@\xaa*\xd1\x14j\xc4\xef\xbf\x97\xb6~\xfdWV\xf2@'
tbsg64
I01
sg65
g61
(g62
(I0
tS'b'
tRp1012
(I1
(I3
tg67
I00
S'\x01\x01\x01'
tbsg68
I00
sbag8
(g12
g13
NtRp1013
(dp1014
g16
g1001
sg60
g61
(g62
(I0
tS'b'
tRp1015
(I1
(I3
tg6
I00
S'hc)\xd6\xae\xbd\x06@\xed\xbfbW\x0b\xae\xf5\xbf&B\xd1W\xad\x8b\xd4@'
tbsg64
I01
sg65
g61
(g62
(I0
tS'b'
tRp1016
(I1
(I3
tg67
I00
S'\x01\x01\x01'
tbsg68
I00
sbag8
(g12
g13
NtRp1017
(dp1018
g16
g1001
sg60
g61
(g62
(I0
tS'b'
tRp1019
(I1
(I3
tg6
I00
S'\xad\x9c\xe2\xcb\xec\xea\x0c@q\x10h_\x1aN\xef\xbf\xed\xa4=\x94O\x01\xf2@'
tbsg64
I01
sg65
g61
(g62
(I0
tS'b'
tRp1020
(I1
(I3
tg67
I00
S'\x01\x01\x01'
tbsg68
I00
sbag8
(g12
g13
NtRp1021
(dp1022
g16
g1001
sg60
g61
(g62
(I0
tS'b'
tRp1023
(I1
(I3
tg6
I00
S'\xc6\x10\x01\xac\x9bs\x10@\xcd\xcfX~\xb6\xe3\xed\xbf\x8d\xf1C\xc8\xb2\xb5\xec@'
tbsg64
I01
sg65
g61
(g62
(I0
tS'b'
tRp1024
(I1
(I3
tg67
I00
S'\x01\x01\x01'
tbsg68
I00
sbag8
(g12
g13
NtRp1025
(dp1026
g16
g1001
sg60
g61
(g62
(I0
tS'b'
tRp1027
(I1
(I3
tg6
I00
S'd\x16\xe8\xf3\xb9)\x12@*\xc3U\xa1\xc7,\xf1\xbf\xa0\xb8\x807\xc9\x0b\xf2@'
tbsg64
I01
sg65
g61
(g62
(I0
tS'b'
tRp1028
(I1
(I3
tg67
I00
S'\x01\x01\x01'
tbsg68
I00
sbag8
(g12
g13
NtRp1029
(dp1030
g16
g1001
sg60
g61
(g62
(I0
tS'b'
tRp1031
(I1
(I3
tg6
I00
S'\xfe\xc1\xf5\xb9.L\x13@%\xf9;\xe5\xa3\xb6\xf1\xbfm\x081B\xc3R\xde@'
tbsg64
I01
sg65
g61
(g62
(I0
tS'b'
tRp1032
(I1
(I3
tg67
I00
S'\x01\x01\x01'
tbsg68
I00
sbag8
(g12
g13
NtRp1033
(dp1034
g16
g1001
sg60
g61
(g62
(I0
tS'b'
tRp1035
(I1
(I3
tg6
I00
S"\xfe\xe5\xb9\x07\xfd\xae\x14@\xab\xc9\xc6&'\xdf\xf4\xbf\xa8\x98\xfd\xde\xab\xe6\xd8@"
tbsg64
I01
sg65
g61
(g62
(I0
tS'b'
tRp1036
(I1
(I3
tg67
I00
S'\x01\x01\x01'
tbsg68
I00
sbag8
(g12
g13
NtRp1037
(dp1038
g16
g1001
sg60
g61
(g62
(I0
tS'b'
tRp1039
(I1
(I3
tg6
I00
S'\x80=\xe4l\x96\xac\x15@r\xc4C\x0e\x9d\x1d\xf2\xbf\x98\x99\x84Fk\x1f\xf0@'
tbsg64
I01
sg65
g61
(g62
(I0
tS'b'
tRp1040
(I1
(I3
tg67
I00
S'\x01\x01\x01'
tbsg68
I00
sbag8
(g12
g13
NtRp1041
(dp1042
g16
g1001
sg60
g61
(g62
(I0
tS'b'
tRp1043
(I1
(I3
tg6
I00
S'\x1ba\x83\x88I\x19\x17@pJL\x96\x93\xff\xc6\xbf#\x07?Z|O\xfc@'
tbsg64
I01
sg65
g61
(g62
(I0
tS'b'
tRp1044
(I1
(I3
tg67
I00
S'\x01\x01\x01'
tbsg68
I00
sbag8
(g12
g13
NtRp1045
(dp1046
g16
g1001
sg60
g61
(g62
(I0
tS'b'
tRp1047
(I1
(I3
tg6
I00
S'%\xe6\xb8\xbfs\x83\x18@\xe0$\x81\x1bi4\xf2\xbf\xb0\xe4mR\xb0\xea\xea@'
tbsg64
I01
sg65
g61
(g62
(I0
tS'b'
tRp1048
(I1
(I3
tg67
I00
S'\x01\x01\x01'
tbsg68
I00
sbag8
(g12
g13
NtRp1049
(dp1050
g16
g1001
sg60
g61
(g62
(I0
tS'b'
tRp1051
(I1
(I3
tg6
I00
S'\xa3\xf3\xec^C\xd7\x1a@;\x00N\n<\xd2\xd1?\x91\xf1\r\xb4\x83L\x07A'
tbsg64
I01
sg65
g61
(g62
(I0
tS'b'
tRp1052
(I1
(I3
tg67
I00
S'\x01\x01\x01'
tbsg68
I00
sbatRp1053
a(dp1054
g60
g61
(g62
(I0
tS'b'
tRp1055
(I1
(I0
tg6
I00
S''
tbsg64
I00
sg65
g61
(g62
(I0
tS'b'
tRp1056
(I1
(I0
tg67
I00
S''
tbsg68
I00
sag4
(g6
S"`\xa6'\xc5\t\xe1\xc2?"
tRp1057
aa(lp1058
g4
(g6
S'~uRe\xacr\xc2@'
tRp1059
ag8
(g9
g10
(lp1060
g8
(g12
g13
NtRp1061
(dp1062
g16
g8
(g17
g13
NtRp1063
(dp1064
g20
F5
sg21
(dp1065
g20
(F5
g23
tp1066
sg25
(F21.299999
g23
tp1067
sg27
(F4
g23
tp1068
ssg27
F4
sg29
I3
sg25
F21.299999
sg30
g32
sg41
g42
sg48
g49
sg53
g54
sbsg60
g61
(g62
(I0
tS'b'
tRp1069
(I1
(I3
tg6
I00
S'\xb2R\xa6\xb2\xdb\x11\xf7?-\x14.%\x07"\xf3\xbfB\xa7\x1d\xf9\x94\x84\xe1@'
tbsg64
I01
sg65
g61
(g62
(I0
tS'b'
tRp1070
(I1
(I3
tg67
I00
S'\x01\x01\x01'
tbsg68
I00
sbag8
(g12
g13
NtRp1071
(dp1072
g16
g1063
sg60
g61
(g62
(I0
tS'b'
tRp1073
(I1
(I3
tg6
I00
S'3\xf9x\xdf~\x81\x03@.7O\x97\xc8\x96\xee\xbf\x82\xb6\x07\n\xc9\xbd\xf2@'
tbsg64
I01
sg65
g61
(g62
(I0
tS'b'
tRp1074
(I1
(I3
tg67
I00
S'\x01\x01\x01'
tbsg68
I00
sbag8
(g12
g13
NtRp1075
(dp1076
g16
g1063
sg60
g61
(g62
(I0
tS'b'
tRp1077
(I1
(I3
tg6
I00
S'Q\xca\x8d@&\xc2\x06@\xce\x11\xd0\xc0^\xaf\xf6\xbf\x11(z\xb2\xa0\xf7\xd4@'
tbsg64
I01
sg65
g61
(g62
(I0
tS'b'
tRp1078
(I1
(I3
tg67
I00
S'\x01\x01\x01'
tbsg68
I00
sbag8
(g12
g13
NtRp1079
(dp1080
g16
g1063
sg60
g61
(g62
(I0
tS'b'
tRp1081
(I1
(I3
tg6
I00
S'\xd6\xab:\x14R\xea\x0c@2YH\x06\x9e\xed\xee\xbf\xda:r\xf1$\x19\xf2@'
tbsg64
I01
sg65
g61
(g62
(I0
tS'b'
tRp1082
(I1
(I3
tg67
I00
S'\x01\x01\x01'
tbsg68
I00
sbag8
(g12
g13
NtRp1083
(dp1084
g16
g1063
sg60
g61
(g62
(I0
tS'b'
tRp1085
(I1
(I3
tg6
I00
S'CmA Yp\x10@#K\x0cg\x8f?\xf0\xbfW\xf5\x05k\xa9-\xeb@'
tbsg64
I01
sg65
g61
(g62
(I0
tS'b'
tRp1086
(I1
(I3
tg67
I00
S'\x01\x01\x01'
tbsg68
I00
sbag8
(g12
g13
NtRp1087
(dp1088
g16
g1063
sg60
g61
(g62
(I0
tS'b'
tRp1089
(I1
(I3
tg6
I00
S'F\xf4\xef&\xeb2\x12@\xf3\xeekd&\x0c\xee\xbfD\x93\xfa\xc5\x88<\xf4@'
tbsg64
I01
sg65
g61
(g62
(I0
tS'b'
tRp1090
(I1
(I3
tg67
I00
S'\x01\x01\x01'
tbsg68
I00
sbag8
(g12
g13
NtRp1091
(dp1092
g16
g1063
sg60
g61
(g62
(I0
tS'b'
tRp1093
(I1
(I3
tg6
I00
S'\xe8\xa6\xa5\xfa\x8a_\x13@\xbd%b \x0c\x19\xf7\xbf\xf0\xcdr\x91\xb5\xde\xd3@'
tbsg64
I01
sg65
g61
(g62
(I0
tS'b'
tRp1094
(I1
(I3
tg67
I00
S'\x01\x01\x01'
tbsg68
I00
sbag8
(g12
g13
NtRp1095
(dp1096
g16
g1063
sg60
g61
(g62
(I0
tS'b'
tRp1097
(I1
(I3
tg6
I00
S'\x03\x9c\xf5\x02_\xcb\x15@\xe3\x12rx\x86\xcd\xca\xbf\xc6\xb1O\xc7,\xde\x01A'
tbsg64
I01
sg65
g61
(g62
(I0
tS'b'
tRp1098
(I1
(I3
tg67
I00
S'\x01\x01\x01'
tbsg68
I00
sbag8
(g12
g13
NtRp1099
(dp1100
g16
g1063
sg60
g61
(g62
(I0
tS'b'
tRp1101
(I1
(I3
tg6
I00
S'@\x0c\xc6\xfd\xd4@\x17@/\x96W\x82m\xcb\xf6\xbfLl\x7f&\xc7\x17\xe1@'
tbsg64
I01
sg65
g61
(g62
(I0
tS'b'
tRp1102
(I1
(I3
tg67
I00
S'\x01\x01\x01'
tbsg68
I00
sbag8
(g12
g13
NtRp1103
(dp1104
g16
g1063
sg60
g61
(g62
(I0
tS'b'
tRp1105
(I1
(I3
tg6
I00
S'Y9Dg\x9f]\x18@\xa5~\xbeh\xe2J\xf0\xbf6;]\xa7\xf6s\xf3@'
tbsg64
I01
sg65
g61
(g62
(I0
tS'b'
tRp1106
(I1
(I3
tg67
I00
S'\x01\x01\x01'
tbsg68
I00
sbag8
(g12
g13
NtRp1107
(dp1108
g16
g1063
sg60
g61
(g62
(I0
tS'b'
tRp1109
(I1
(I3
tg6
I00
S'\xcc+\xd6.\x0b\xd6\x1a@\xa8\x86v\xa02\x99\xd3?4\x9c\x05<\xcdu\x07A'
tbsg64
I01
sg65
g61
(g62
(I0
tS'b'
tRp1110
(I1
(I3
tg67
I00
S'\x01\x01\x01'
tbsg68
I00
sbatRp1111
a(dp1112
g60
g61
(g62
(I0
tS'b'
tRp1113
(I1
(I0
tg6
I00
S''
tbsg64
I00
sg65
g61
(g62
(I0
tS'b'
tRp1114
(I1
(I0
tg67
I00
S''
tbsg68
I00
sag4
(g6
S"`\xa6'\xc5\t\xe1\xc2?"
tRp1115
aa(lp1116
g4
(g6
S'R\x0b1\x7f\xac\x86\xc3@'
tRp1117
ag8
(g9
g10
(lp1118
g8
(g12
g13
NtRp1119
(dp1120
g16
g8
(g17
g13
NtRp1121
(dp1122
g20
F5
sg21
(dp1123
g20
(F5
g23
tp1124
sg25
(F21.299999
g23
tp1125
sg27
(F4
g23
tp1126
ssg27
F4
sg29
I3
sg25
F21.299999
sg30
g32
sg41
g42
sg48
g49
sg53
g54
sbsg60
g61
(g62
(I0
tS'b'
tRp1127
(I1
(I3
tg6
I00
S'}\xdbDUV\r\xf7?&P\xf6\x95\xdf1\xf3\xbf&q\x98\xe8V\x93\xe1@'
tbsg64
I01
sg65
g61
(g62
(I0
tS'b'
tRp1128
(I1
(I3
tg67
I00
S'\x01\x01\x01'
tbsg68
I00
sbag8
(g12
g13
NtRp1129
(dp1130
g16
g1121
sg60
g61
(g62
(I0
tS'b'
tRp1131
(I1
(I3
tg6
I00
S'\xc0dh\x80\xca\x82\x03@\x02?\x1a\xe3\xda\x07\xef\xbf\xb0\x96\xae\xcb\x82\xaf\xf2@'
tbsg64
I01
sg65
g61
(g62
(I0
tS'b'
tRp1132
(I1
(I3
tg67
I00
S'\x01\x01\x01'
tbsg68
I00
sbag8
(g12
g13
NtRp1133
(dp1134
g16
g1121
sg60
g61
(g62
(I0
tS'b'
tRp1135
(I1
(I3
tg6
I00
S'\xe2-\xdb\x10\xa6\xc0\x06@\xcc\xd1\xb2\x05\xa8\xaf\xf6\xbfA]-t.\xea\xd4@'
tbsg64
I01
sg65
g61
(g62
(I0
tS'b'
tRp1136
(I1
(I3
tg67
I00
S'\x01\x01\x01'
tbsg68
I00
sbag8
(g12
g13
NtRp1137
(dp1138
g16
g1121
sg60
g61
(g62
(I0
tS'b'
tRp1139
(I1
(I3
tg6
I00
S'\x9b\xfe\xde\x85,\xea\x0c@\x88\xbeB\xb92\x14\xef\xbf\xd0E\x98\xad\x1f\x18\xf2@'
tbsg64
I01
sg65
g61
(g62
(I0
tS'b'
tRp1140
(I1
(I3
tg67
I00
S'\x01\x01\x01'
tbsg68
I00
sbag8
(g12
g13
NtRp1141
(dp1142
g16
g1121
sg60
g61
(g62
(I0
tS'b'
tRp1143
(I1
(I3
tg6
I00
S'\xd3\x0f\xca\x13\xbfq\x10@\xbd\x84~\x1cqc\xef\xbf\xd2\xa9Y<]\xa3\xeb@'
tbsg64
I01
sg65
g61
(g62
(I0
tS'b'
tRp1144
(I1
(I3
tg67
I00
S'\x01\x01\x01'
tbsg68
I00
sbag8
(g12
g13
NtRp1145
(dp1146
g16
g1121
sg60
g61
(g62
(I0
tS'b'
tRp1147
(I1
(I3
tg6
I00
S'\xfb\xc9\x88\xb1\xde1\x12@\x9c*\xcd\xf6\x9fW\xef\xbf\xd6\x98\x87\x1e*\xd6\xf3@'
tbsg64
I01
sg65
g61
(g62
(I0
tS'b'
tRp1148
(I1
(I3
tg67
I00
S'\x01\x01\x01'
tbsg68
I00
sbag8
(g12
g13
NtRp1149
(dp1150
g16
g1121
sg60
g61
(g62
(I0
tS'b'
tRp1151
(I1
(I3
tg6
I00
S'7t{\x80\xa8]\x13@\xccu\xfa\xaa\x83\x16\xf7\xbf\xc5\x08\t\xe6\xe8\x16\xd5@'
tbsg64
I01
sg65
g61
(g62
(I0
tS'b'
tRp1152
(I1
(I3
tg67
I00
S'\x01\x01\x01'
tbsg68
I00
sbag8
(g12
g13
NtRp1153
(dp1154
g16
g1121
sg60
g61
(g62
(I0
tS'b'
tRp1155
(I1
(I3
tg6
I00
S":\x02Lt\xa2\x97\x15@\xe1\xac>\x02'd\xf6\xbfe\x8f\x1aX\xcb\x81\xd9@"
tbsg64
I01
sg65
g61
(g62
(I0
tS'b'
tRp1156
(I1
(I3
tg67
I00
S'\x01\x01\x01'
tbsg68
I00
sbag8
(g12
g13
NtRp1157
(dp1158
g16
g1121
sg60
g61
(g62
(I0
tS'b'
tRp1159
(I1
(I3
tg6
I00
S'\xba\x1f\x86|J~\x16@\x95\xb1\xfa\x9d\xca\xfd\xf8?=N\x05\x81\xf16\x06A'
tbsg64
I01
sg65
g61
(g62
(I0
tS'b'
tRp1160
(I1
(I3
tg67
I00
S'\x01\x01\x01'
tbsg68
I00
sbag8
(g12
g13
NtRp1161
(dp1162
g16
g1121
sg60
g61
(g62
(I0
tS'b'
tRp1163
(I1
(I3
tg6
I00
S'h\x07\r\x1a\x02{\x18@Q\r.\x08?\x9f\xf4\xbf\x02\xbf(\xe4\x9f\x8e\xe8@'
tbsg64
I01
sg65
g61
(g62
(I0
tS'b'
tRp1164
(I1
(I3
tg67
I00
S'\x01\x01\x01'
tbsg68
I00
sbag8
(g12
g13
NtRp1165
(dp1166
g16
g1121
sg60
g61
(g62
(I0
tS'b'
tRp1167
(I1
(I3
tg6
I00
S'\xa8\x97\xe4\xf2\xb0\xd7\x1a@\xee`)@\xe1\xd3\xd3?\xd2\xd54~Cd\x07A'
tbsg64
I01
sg65
g61
(g62
(I0
tS'b'
tRp1168
(I1
(I3
tg67
I00
S'\x01\x01\x01'
tbsg68
I00
sbatRp1169
a(dp1170
g60
g61
(g62
(I0
tS'b'
tRp1171
(I1
(I0
tg6
I00
S''
tbsg64
I00
sg65
g61
(g62
(I0
tS'b'
tRp1172
(I1
(I0
tg67
I00
S''
tbsg68
I00
sag4
(g6
S"`\xa6'\xc5\t\xe1\xc2?"
tRp1173
aa(lp1174
g4
(g6
S'&\xa1\x0f\x99\xac\x9a\xc4@'
tRp1175
ag8
(g9
g10
(lp1176
g8
(g12
g13
NtRp1177
(dp1178
g16
g8
(g17
g13
NtRp1179
(dp1180
g20
F5
sg21
(dp1181
g20
(F5
g23
tp1182
sg25
(F21.299999
g23
tp1183
sg27
(F4
g23
tp1184
ssg27
F4
sg29
I3
sg25
F21.299999
sg30
g32
sg41
g42
sg48
g49
sg53
g54
sbsg60
g61
(g62
(I0
tS'b'
tRp1185
(I1
(I3
tg6
I00
S'\x91\x1b\xfa\x12\xda\x12\xf7?i\x9aX\xf0\x9f"\xf3\xbf\x7f\xef\x8f\xce\x07\x7f\xe1@'
tbsg64
I01
sg65
g61
(g62
(I0
tS'b'
tRp1186
(I1
(I3
tg67
I00
S'\x01\x01\x01'
tbsg68
I00
sbag8
(g12
g13
NtRp1187
(dp1188
g16
g1179
sg60
g61
(g62
(I0
tS'b'
tRp1189
(I1
(I3
tg6
I00
S'/w\xb6\x99k\x81\x03@\xa5Z\xb8\xf06\x92\xee\xbfUE\xa1Z\xab\xbc\xf2@'
tbsg64
I01
sg65
g61
(g62
(I0
tS'b'
tRp1190
(I1
(I3
tg67
I00
S'\x01\x01\x01'
tbsg68
I00
sbag8
(g12
g13
NtRp1191
(dp1192
g16
g1179
sg60
g61
(g62
(I0
tS'b'
tRp1193
(I1
(I3
tg6
I00
S'\xd5\x1a\xd2o\xdd\xc0\x06@p\xd0\x96\x19B\xaf\xf6\xbf\x8a\xa0\x82\x0e&\x18\xd5@'
tbsg64
I01
sg65
g61
(g62
(I0
tS'b'
tRp1194
(I1
(I3
tg67
I00
S'\x01\x01\x01'
tbsg68
I00
sbag8
(g12
g13
NtRp1195
(dp1196
g16
g1179
sg60
g61
(g62
(I0
tS'b'
tRp1197
(I1
(I3
tg6
I00
S'\x80\x08\xb6Q\x82\xea\x0c@\xbd\x01\xc1\xdd\\\xf6\xee\xbf4\xeb\xe0?q\x19\xf2@'
tbsg64
I01
sg65
g61
(g62
(I0
tS'b'
tRp1198
(I1
(I3
tg67
I00
S'\x01\x01\x01'
tbsg68
I00
sbag8
(g12
g13
NtRp1199
(dp1200
g16
g1179
sg60
g61
(g62
(I0
tS'b'
tRp1201
(I1
(I3
tg6
I00
S'\x08\xa2\xfe0Aq\x10@{\x0f\xfe\x8bU\xbe\xef\xbf<_$o\xb0\xb2\xeb@'
tbsg64
I01
sg65
g61
(g62
(I0
tS'b'
tRp1202
(I1
(I3
tg67
I00
S'\x01\x01\x01'
tbsg68
I00
sbag8
(g12
g13
NtRp1203
(dp1204
g16
g1179
sg60
g61
(g62
(I0
tS'b'
tRp1205
(I1
(I3
tg6
I00
S'\x8a2\xc0H\xcc1\x12@\x84\x1c\xba\xc3\xb1\x13\xef\xbf\x99\xf1\xd32I\xad\xf3@'
tbsg64
I01
sg65
g61
(g62
(I0
tS'b'
tRp1206
(I1
(I3
tg67
I00
S'\x01\x01\x01'
tbsg68
I00
sbag8
(g12
g13
NtRp1207
(dp1208
g16
g1179
sg60
g61
(g62
(I0
tS'b'
tRp1209
(I1
(I3
tg6
I00
S'V0\xeb8\x7f_\x13@\xdb\xe9\xe0/\x98\x03\xf7\xbf\xcbC\t.\xf9f\xd4@'
tbsg64
I01
sg65
g61
(g62
(I0
tS'b'
tRp1210
(I1
(I3
tg67
I00
S'\x01\x01\x01'
tbsg68
I00
sbag8
(g12
g13
NtRp1211
(dp1212
g16
g1179
sg60
g61
(g62
(I0
tS'b'
tRp1213
(I1
(I3
tg6
I00
S'\xb4W\x1fb\x16M\x16@\xae\x12j\x0c\xfb \xf9?\x0c\xc7%\xea>1\nA'
tbsg64
I01
sg65
g61
(g62
(I0
tS'b'
tRp1214
(I1
(I3
tg67
I00
S'\x01\x01\x01'
tbsg68
I00
sbag8
(g12
g13
NtRp1215
(dp1216
g16
g1179
sg60
g61
(g62
(I0
tS'b'
tRp1217
(I1
(I3
tg6
I00
S'\xb4\x1e,,\xe1\x85\x18@P\x1c\xf4r{\xd4\xf6\xbfEm\xa2\xf72\xea\xe5@'
tbsg64
I01
sg65
g61
(g62
(I0
tS'b'
tRp1218
(I1
(I3
tg67
I00
S'\x01\x01\x01'
tbsg68
I00
sbag8
(g12
g13
NtRp1219
(dp1220
g16
g1179
sg60
g61
(g62
(I0
tS'b'
tRp1221
(I1
(I3
tg6
I00
S'\xe9=\x16\xc0\x8f\xd4\x1a@Q\xef\x81H\xfbc\xd8?\xb0v0\xbf\xce\xb6\x07A'
tbsg64
I01
sg65
g61
(g62
(I0
tS'b'
tRp1222
(I1
(I3
tg67
I00
S'\x01\x01\x01'
tbsg68
I00
sbatRp1223
a(dp1224
g60
g61
(g62
(I0
tS'b'
tRp1225
(I1
(I0
tg6
I00
S''
tbsg64
I00
sg65
g61
(g62
(I0
tS'b'
tRp1226
(I1
(I0
tg67
I00
S''
tbsg68
I00
sag4
(g6
S"`\xa6'\xc5\t\xe1\xc2?"
tRp1227
aa(lp1228
g4
(g6
S'\xfa6\xee\xb2\xac\xae\xc5@'
tRp1229
ag8
(g9
g10
(lp1230
g8
(g12
g13
NtRp1231
(dp1232
g16
g8
(g17
g13
NtRp1233
(dp1234
g20
F5
sg21
(dp1235
g20
(F5
g23
tp1236
sg25
(F21.299999
g23
tp1237
sg27
(F4
g23
tp1238
ssg27
F4
sg29
I3
sg25
F21.299999
sg30
g32
sg41
g42
sg48
g49
sg53
g54
sbsg60
g61
(g62
(I0
tS'b'
tRp1239
(I1
(I3
tg6
I00
S'\xfb\xe4\xd6\xb5\xb9\x14\xf7?5\xba\x9b]\x18\x1c\xf3\xbf\xe3\xc7\xb4!\x0f\x84\xe1@'
tbsg64
I01
sg65
g61
(g62
(I0
tS'b'
tRp1240
(I1
(I3
tg67
I00
S'\x01\x01\x01'
tbsg68
I00
sbag8
(g12
g13
NtRp1241
(dp1242
g16
g1233
sg60
g61
(g62
(I0
tS'b'
tRp1243
(I1
(I3
tg6
I00
S'\xc8\x12\xfa\x0eO\x81\x03@AcZd\xfe\x87\xee\xbf\xee^\xa2\xd56\xbd\xf2@'
tbsg64
I01
sg65
g61
(g62
(I0
tS'b'
tRp1244
(I1
(I3
tg67
I00
S'\x01\x01\x01'
tbsg68
I00
sbag8
(g12
g13
NtRp1245
(dp1246
g16
g1233
sg60
g61
(g62
(I0
tS'b'
tRp1247
(I1
(I3
tg6
I00
S'\xf5\xcf\xef_A\xc1\x06@\xef\xbc\xed-\xac\xae\xf6\xbf\x8b7\xea\xfd\xd6\x0b\xd5@'
tbsg64
I01
sg65
g61
(g62
(I0
tS'b'
tRp1248
(I1
(I3
tg67
I00
S'\x01\x01\x01'
tbsg68
I00
sbag8
(g12
g13
NtRp1249
(dp1250
g16
g1233
sg60
g61
(g62
(I0
tS'b'
tRp1251
(I1
(I3
tg6
I00
S'\xe6\x13\xd6\x9e\x9b\xea\x0c@\n-;\xab\xa9\xed\xee\xbf\xb2<)\xed\x07\x1a\xf2@'
tbsg64
I01
sg65
g61
(g62
(I0
tS'b'
tRp1252
(I1
(I3
tg67
I00
S'\x01\x01\x01'
tbsg68
I00
sbag8
(g12
g13
NtRp1253
(dp1254
g16
g1233
sg60
g61
(g62
(I0
tS'b'
tRp1255
(I1
(I3
tg6
I00
S'\xbeU\x9e\xd9^p\x10@\xa0\xe2Z`t<\xf0\xbf\xb8\xea5\xf3\xe4.\xeb@'
tbsg64
I01
sg65
g61
(g62
(I0
tS'b'
tRp1256
(I1
(I3
tg67
I00
S'\x01\x01\x01'
tbsg68
I00
sbag8
(g12
g13
NtRp1257
(dp1258
g16
g1233
sg60
g61
(g62
(I0
tS'b'
tRp1259
(I1
(I3
tg6
I00
S'\x0e\xd4\xd3\xf2\xf22\x12@\xa8\xc2*\x0b\x91\x0e\xee\xbf\x19*\x17 \xec<\xf4@'
tbsg64
I01
sg65
g61
(g62
(I0
tS'b'
tRp1260
(I1
(I3
tg67
I00
S'\x01\x01\x01'
tbsg68
I00
sbag8
(g12
g13
NtRp1261
(dp1262
g16
g1233
sg60
g61
(g62
(I0
tS'b'
tRp1263
(I1
(I3
tg6
I00
S'\xa0\xa7\x81\xfa\xcc_\x13@%\xad\xd2A\xd6\x07\xf7\xbf>\x16LJ\xaf4\xd4@'
tbsg64
I01
sg65
g61
(g62
(I0
tS'b'
tRp1264
(I1
(I3
tg67
I00
S'\x01\x01\x01'
tbsg68
I00
sbag8
(g12
g13
NtRp1265
(dp1266
g16
g1233
sg60
g61
(g62
(I0
tS'b'
tRp1267
(I1
(I3
tg6
I00
S'\x00\x9f\xa2\xff\x85\xcb\x15@=\x13\xe8\x03\x06\x1c\xcb\xbf(w0C7\xd9\x01A'
tbsg64
I01
sg65
g61
(g62
(I0
tS'b'
tRp1268
(I1
(I3
tg67
I00
S'\x01\x01\x01'
tbsg68
I00
sbag8
(g12
g13
NtRp1269
(dp1270
g16
g1233
sg60
g61
(g62
(I0
tS'b'
tRp1271
(I1
(I3
tg6
I00
S"u \xaaj'>\x17@\x89\xff\xb0\x82(\xd6\xf6\xbf\x8a\x9cM\xf7+\xd9\xe0@"
tbsg64
I01
sg65
g61
(g62
(I0
tS'b'
tRp1272
(I1
(I3
tg67
I00
S'\x01\x01\x01'
tbsg68
I00
sbag8
(g12
g13
NtRp1273
(dp1274
g16
g1233
sg60
g61
(g62
(I0
tS'b'
tRp1275
(I1
(I3
tg6
I00
S'w\x044mj]\x18@\xd8\xb6\xa0C@\x0e\xf0\xbf{\xf7q\xa2{\xa8\xf3@'
tbsg64
I01
sg65
g61
(g62
(I0
tS'b'
tRp1276
(I1
(I3
tg67
I00
S'\x01\x01\x01'
tbsg68
I00
sbag8
(g12
g13
NtRp1277
(dp1278
g16
g1233
sg60
g61
(g62
(I0
tS'b'
tRp1279
(I1
(I3
tg6
I00
S'\xae\x83\xda\xd4^\xd6\x1a@\xbc\xcb\xc9z\x88\x7f\xd3?\x15xk\x17Gs\x07A'
tbsg64
I01
sg65
g61
(g62
(I0
tS'b'
tRp1280
(I1
(I3
tg67
I00
S'\x01\x01\x01'
tbsg68
I00
sbatRp1281
a(dp1282
g60
g61
(g62
(I0
tS'b'
tRp1283
(I1
(I0
tg6
I00
S''
tbsg64
I00
sg65
g61
(g62
(I0
tS'b'
tRp1284
(I1
(I0
tg67
I00
S''
tbsg68
I00
sag4
(g6
S"`\xa6'\xc5\t\xe1\xc2?"
tRp1285
aa(lp1286
g4
(g6
S'\xcd\xcc\xcc\xcc\xac\xc2\xc6@'
tRp1287
ag8
(g9
g10
(lp1288
g8
(g12
g13
NtRp1289
(dp1290
g16
g8
(g17
g13
NtRp1291
(dp1292
g20
F5
sg21
(dp1293
g20
(F5
g23
tp1294
sg25
(F21.299999
g23
tp1295
sg27
(F4
g23
tp1296
ssg27
F4
sg29
I3
sg25
F21.299999
sg30
g32
sg41
g42
sg48
g49
sg53
g54
sbsg60
g61
(g62
(I0
tS'b'
tRp1297
(I1
(I3
tg6
I00
S'\x84;\x10\xda0\x0e\xf7?G\xdf\xee\x89\x1c<\xf3\xbf\xc0\x9fq\xf1X\x7f\xe1@'
tbsg64
I01
sg65
g61
(g62
(I0
tS'b'
tRp1298
(I1
(I3
tg67
I00
S'\x01\x01\x01'
tbsg68
I00
sbag8
(g12
g13
NtRp1299
(dp1300
g16
g1291
sg60
g61
(g62
(I0
tS'b'
tRp1301
(I1
(I3
tg6
I00
S'U\xdd2\xb5\xbb\x82\x03@\xb0g\xa4h\x07\xd0\xee\xbfl\xae\x19\xe2\xb6\xbb\xf2@'
tbsg64
I01
sg65
g61
(g62
(I0
tS'b'
tRp1302
(I1
(I3
tg67
I00
S'\x01\x01\x01'
tbsg68
I00
sbag8
(g12
g13
NtRp1303
(dp1304
g16
g1291
sg60
g61
(g62
(I0
tS'b'
tRp1305
(I1
(I3
tg6
I00
S"d\xad'\t|\xc2\x06@\x16hB\x12I\x08\xf6\xbf\xff-S\x07*u\xd4@"
tbsg64
I01
sg65
g61
(g62
(I0
tS'b'
tRp1306
(I1
(I3
tg67
I00
S'\x01\x01\x01'
tbsg68
I00
sbag8
(g12
g13
NtRp1307
(dp1308
g16
g1291
sg60
g61
(g62
(I0
tS'b'
tRp1309
(I1
(I3
tg6
I00
S'\x15\x99\x0f.x\xea\x0c@\xa3N\xc0p\xc5\xf2\xee\xbf\x1a\xb0\xe4.\xed"\xf2@'
tbsg64
I01
sg65
g61
(g62
(I0
tS'b'
tRp1310
(I1
(I3
tg67
I00
S'\x01\x01\x01'
tbsg68
I00
sbag8
(g12
g13
NtRp1311
(dp1312
g16
g1291
sg60
g61
(g62
(I0
tS'b'
tRp1313
(I1
(I3
tg6
I00
S'<\xca^\xc6cq\x10@\xfd\xecO1\xce}\xef\xbfwN\xdb\x91\xbey\xeb@'
tbsg64
I01
sg65
g61
(g62
(I0
tS'b'
tRp1314
(I1
(I3
tg67
I00
S'\x01\x01\x01'
tbsg68
I00
sbag8
(g12
g13
NtRp1315
(dp1316
g16
g1291
sg60
g61
(g62
(I0
tS'b'
tRp1317
(I1
(I3
tg6
I00
S'-2\x16\x98\x992\x12@\xbb)\xbf\xe7w8\xef\xbf\xd2\x8d\xe6\xe9"\xf2\xf3@'
tbsg64
I01
sg65
g61
(g62
(I0
tS'b'
tRp1318
(I1
(I3
tg67
I00
S'\x01\x01\x01'
tbsg68
I00
sbag8
(g12
g13
NtRp1319
(dp1320
g16
g1291
sg60
g61
(g62
(I0
tS'b'
tRp1321
(I1
(I3
tg6
I00
S'\xd5\xadwJ\xff[\x13@\xffCjJ\xc9/\xf7\xbf\x81\xfbVR\xe5\xbc\xd4@'
tbsg64
I01
sg65
g61
(g62
(I0
tS'b'
tRp1322
(I1
(I3
tg67
I00
S'\x01\x01\x01'
tbsg68
I00
sbag8
(g12
g13
NtRp1323
(dp1324
g16
g1291
sg60
g61
(g62
(I0
tS'b'
tRp1325
(I1
(I3
tg6
I00
S' \xa0\x84\xe2R\xa8\x15@\x9d\xcd\x0f\xfe\xca\xcd\xf1\xbf/\x81u\xc4l\x0e\xef@'
tbsg64
I01
sg65
g61
(g62
(I0
tS'b'
tRp1326
(I1
(I3
tg67
I00
S'\x01\x01\x01'
tbsg68
I00
sbag8
(g12
g13
NtRp1327
(dp1328
g16
g1291
sg60
g61
(g62
(I0
tS'b'
tRp1329
(I1
(I3
tg6
I00
S"\xde\x03/&[\xb2\x17@0\x01=#\n\x1d\xf9?'\xa8\xfc\xfb}\xd4\x07A"
tbsg64
I01
sg65
g61
(g62
(I0
tS'b'
tRp1330
(I1
(I3
tg67
I00
S'\x01\x01\x01'
tbsg68
I00
sbag8
(g12
g13
NtRp1331
(dp1332
g16
g1291
sg60
g61
(g62
(I0
tS'b'
tRp1333
(I1
(I3
tg6
I00
S'\x86\xe1\xce\xec\x1e\xf4\x1a@g\x1e\xa1\xb0\xa5+\xad?\x95\xef\xa1\xfb\x90\x9b\x04A'
tbsg64
I01
sg65
g61
(g62
(I0
tS'b'
tRp1334
(I1
(I3
tg67
I00
S'\x01\x01\x01'
tbsg68
I00
sbatRp1335
a(dp1336
g60
g61
(g62
(I0
tS'b'
tRp1337
(I1
(I0
tg6
I00
S''
tbsg64
I00
sg65
g61
(g62
(I0
tS'b'
tRp1338
(I1
(I0
tg67
I00
S''
tbsg68
I00
sag4
(g6
S"`\xa6'\xc5\t\xe1\xc2?"
tRp1339
aaaS"History written: Fri May 29 00:03:18 2015\nproduced by luke\ndiffpy.srmise version 0.5\n##### PDF Peak Extraction\n## BaselineFunctions\n# BaselineFunction 0\nfunction='FromSequence'\nmodule='diffpy.srmise.baselines.fromsequence'\nbase=None\ny=[-1475.0325650706627, -2950.0651301413254, -4425.0976952119881, -5900.1302602826509, -7375.1628253533127, -8850.1953904239745, -10325.227955494638, -11800.260520565302, -13275.293085635964, -14750.325650706625, -16225.358215777289, -17700.390780847953, -19175.423345918618, -20650.455910989276, -22125.488476059942, -23600.521041130603, -25075.553606201265, -26550.586171271931, -28025.459933459599, -29490.66450359999, -30922.864389112267, -32298.695523408274, -33596.022711102938, -34793.92402828217, -35872.675222770908, -36813.734114401064, -37599.724995279517, -38214.42303005611, -38643.368779986711, -38890.463187607907, -38978.523165803032, -38930.29758324947, -38767.462434741778, -38510.636440923663, -38179.39664801996, -37792.294027568765, -37366.869076153373, -36919.66741513431, -36465.762314723048, -36011.685031151355, -35557.60774757967, -35103.530464007978, -34649.453180436292, -34195.375896864593, -33741.298613292922, -33287.221329721207, -32833.144046149522, -32379.066762577819, -31924.989479006141, -31470.912195434459, -31016.83491186277, -30562.757628291063, -30108.680344719356, -29654.603061147711, -29200.525777575986, -28746.448494004322, -28292.371210432615, -27838.293926860926, -27384.216643289248, -26930.139359411234, -26474.542488478357, -26010.083575850655, -25528.358372275903, -25021.398910324362, -24481.667989050857, -23902.053658656267, -23275.863705149979, -22596.820135010832, -21859.053659849822, -21057.103538030915, -20189.157506289514, -19262.2608478449, -18284.582204221027, -17263.909088500266, -16207.653400662406, -15122.856942922259, -14016.196935068139, -12893.991529799485, -11762.205328065833, -10626.439769837914, -9490.3191584519027, -8354.1985470658783, -7218.0779356797575, -6081.9573242938068, -4945.8367129076605, -3809.7161015215393, -2673.5954901353934, -1537.4748787493209, -401.35426736339457, 734.76028191512512, 1862.3074495985777, 2947.158200990089, 3960.1884858314311, 4888.6048315275966, 5719.7202101002222, 6439.2477046714184, 7031.3497219455321, 7478.6872046947792, 7762.4688442382803, 7862.653161699448]\nx=[0.10000000000000001, 0.20000000000000001, 0.30000000000000004, 0.40000000000000002, 0.5, 0.59999999999999998, 0.70000000000000007, 0.80000000000000004, 0.90000000000000002, 1.0, 1.1000000000000001, 1.2000000000000002, 1.3000000000000003, 1.4000000000000001, 1.5000000000000002, 1.6000000000000001, 1.7000000000000002, 1.8000000000000003, 1.9000000000000001, 2.0, 2.1000000000000001, 2.2000000000000002, 2.3000000000000003, 2.4000000000000004, 2.5000000000000004, 2.6000000000000001, 2.7000000000000002, 2.8000000000000003, 2.9000000000000004, 3.0000000000000004, 3.1000000000000001, 3.2000000000000002, 3.3000000000000003, 3.4000000000000004, 3.5000000000000004, 3.6000000000000001, 3.7000000000000002, 3.8000000000000003, 3.9000000000000004, 4.0, 4.0999999999999996, 4.2000000000000002, 4.2999999999999998, 4.3999999999999995, 4.5, 4.5999999999999996, 4.7000000000000002, 4.7999999999999998, 4.9000000000000004, 5.0, 5.0999999999999996, 5.2000000000000002, 5.2999999999999998, 5.4000000000000004, 5.5, 5.5999999999999996, 5.7000000000000002, 5.7999999999999998, 5.9000000000000004, 6.0, 6.0999999999999996, 6.2000000000000002, 6.2999999999999998, 6.4000000000000004, 6.5, 6.5999999999999996, 6.7000000000000002, 6.7999999999999998, 6.9000000000000004, 7.0, 7.0999999999999996, 7.2000000000000002, 7.2999999999999998, 7.4000000000000004, 7.5, 7.5999999999999996, 7.7000000000000002, 7.7999999999999998, 7.9000000000000004, 8.0, 8.0999999999999996, 8.1999999999999993, 8.3000000000000007, 8.4000000000000004, 8.5, 8.5999999999999996, 8.6999999999999993, 8.8000000000000007, 8.9000000000000004, 9.0, 9.0999999999999996, 9.1999999999999993, 9.3000000000000007, 9.4000000000000004, 9.5, 9.5999999999999996, 9.7000000000000011, 9.8000000000000007, 9.9000000000000004, 10.0]\n\n## PeakFunctions\n# PeakFunction 0\nfunction='GaussianOverR'\nmodule='diffpy.srmise.peaks.gaussianoverr'\nbase=None\nmaxwidth=0.7\n\n# PeakFunction 1\nfunction='TerminationRipples'\nmodule='diffpy.srmise.peaks.terminationripples'\nbase=0\nsupersample=5.0\nqmax=21.299999\nextension=4.0\n\n# BaselineObject\nowner=0\npars=[]\nfree=[]\nremovable=False\nstatic_owner=False\n\n## InitialPeaks\n# SrMiseMetadata\npf=[0]\ncres=0.05\nModelEvaluator=AIC\nRange=[1.0, 7.25]\n# Metadata\nfilename='/home/luke/Workspaces/MSU_Research/diffpy.srmise/doc/examples/data/C60_fine_qmax21.gr'\nnyquist=True\nqmax=21.299999\nqmax_reportedbypdf=21.299999\nqmax_fromdata=20.755266780473114\nscale=False\nsupersample=4.0\n\n##### start data\n#L x y dx dy edy\n0.01 18942.6 0 8.53691 11653.4\n0.02 37722.7 0 16.7546 11653.4\n0.03 56177.6 0 24.347 11653.4\n0.04 74143.9 0 31.0336 11653.4\n0.05 91457.9 0 36.571 11653.4\n0.06 107956 0 40.7633 11653.4\n0.07 123476 0 43.4706 11653.4\n0.08 137856 0 44.6161 11653.4\n0.09 150940 0 44.191 11653.4\n0.1 162578 0 42.2588 11653.4\n0.11 172629 0 38.9611 11653.4\n0.12 180964 0 34.5282 11653.4\n0.13 187472 0 29.307 11653.4\n0.14 192060 0 23.8359 11653.4\n0.15 194658 0 19.0276 11653.4\n0.16 195226 0 16.3851 11653.4\n0.17 193750 0 17.2383 11653.4\n0.18 190254 0 20.9462 11653.4\n0.19 184793 0 25.822 11653.4\n0.2 177460 0 30.698 11653.4\n0.21 168386 0 34.9379 11653.4\n0.22 157737 0 38.1842 11653.4\n0.23 145712 0 40.2361 11653.4\n0.24 132543 0 41.0033 11653.4\n0.25 118488 0 40.4884 11653.4\n0.26 103827 0 38.7838 11653.4\n0.27 88856.5 0 36.0754 11653.4\n0.28 73881.6 0 32.6565 11653.4\n0.29 59209 0 28.9558 11653.4\n0.3 45139.3 0 25.5728 11653.4\n0.31 31959.2 0 23.2628 11653.4\n0.32 19933.4 0 22.7026 11653.4\n0.33 9297.65 0 24.0285 11653.4\n0.34 251.704 0 26.7081 11653.4\n0.35 -7046.27 0 29.9659 11653.4\n0.36 -12484.5 0 33.1496 11653.4\n0.37 -16000.8 0 35.809 11653.4\n0.38 -17584.8 0 37.6619 11653.4\n0.39 -17278 0 38.5549 11653.4\n0.4 -15172.9 0 38.4411 11653.4\n0.41 -11410.1 0 37.3693 11653.4\n0.42 -6173.99 0 35.4819 11653.4\n0.43 312.641 0 33.0201 11653.4\n0.44 7795.7 0 30.331 11653.4\n0.45 15997.5 0 27.8677 11653.4\n0.46 24625.2 0 26.1426 11653.4\n0.47 33380 0 25.5822 11653.4\n0.48 41966.4 0 26.3124 11653.4\n0.49 50100.7 0 28.0791 11653.4\n0.5 57520.3 0 30.4057 11653.4\n0.51 63990.9 0 32.8044 11653.4\n0.52 69313.7 0 34.886 11653.4\n0.53 73330.8 0 36.3811 11653.4\n0.54 75929.5 0 37.131 11653.4\n0.55 77044.7 0 37.0761 11653.4\n0.56 76660.3 0 36.2478 11653.4\n0.57 74808.1 0 34.7652 11653.4\n0.58 71565.9 0 32.8355 11653.4\n0.59 67053.6 0 30.7514 11653.4\n0.6 61428.1 0 28.8765 11653.4\n0.61 54877.1 0 27.5925 11653.4\n0.62 47611.7 0 27.1928 11653.4\n0.63 39858.8 0 27.7571 11653.4\n0.64 31853 0 29.1121 11653.4\n0.65 23828 0 30.9201 11653.4\n0.66 16008.6 0 32.8095 11653.4\n0.67 8603.69 0 34.4622 11653.4\n0.68 1798.99 0 35.646 11653.4\n0.69 -4248.35 0 36.2199 11653.4\n0.7 -9414.3 0 36.1298 11653.4\n0.71 -13611.1 0 35.4048 11653.4\n0.72 -16789.1 0 34.1541 11653.4\n0.73 -18936.8 0 32.5637 11653.4\n0.74 -20079.9 0 30.8888 11653.4\n0.75 -20278.6 0 29.4309 11653.4\n0.76 -19624.1 0 28.4858 11653.4\n0.77 -18233.7 0 28.2603 11653.4\n0.78 -16245 0 28.7926 11653.4\n0.79 -13810.2 0 29.9374 11653.4\n0.8 -11089.1 0 31.4287 11653.4\n0.81 -8242.85 0 32.9701 11653.4\n0.82 -5427.21 0 34.3007 11653.4\n0.83 -2786.99 0 35.2261 11653.4\n0.84 -450.548 0 35.6277 11653.4\n0.85 1474.5 0 35.4644 11653.4\n0.86 2904.71 0 34.7693 11653.4\n0.87 3783.01 0 33.6482 11653.4\n0.88 4079.74 0 32.2736 11653.4\n0.89 3792.54 0 30.8738 11653.4\n0.9 2944.99 0 29.7056 11653.4\n0.91 1584.28 0 29.0051 11653.4\n0.92 -222.159 0 28.9205 11653.4\n0.93 -2390.68 0 29.4595 11653.4\n0.94 -4826.07 0 30.4869 11653.4\n0.95 -7426.55 0 31.7771 11653.4\n0.96 -10088.8 0 33.0821 11653.4\n0.97 -12713 0 34.1826 11653.4\n0.98 -15207.3 0 34.9156 11653.4\n0.99 -17492 0 35.1842 11653.4\n1 -19503 0 34.9606 11653.4\n1.01 -21193.7 0 34.2847 11653.4\n1.02 -22537 0 33.2613 11653.4\n1.03 -23525.9 0 32.053 11653.4\n1.04 -24172 0 30.8661 11653.4\n1.05 -24504.7 0 29.9216 11653.4\n1.06 -24568.6 0 29.4096 11653.4\n1.07 -24419.8 0 29.435 11653.4\n1.08 -24122.2 0 29.9825 11653.4\n1.09 -23743.2 0 30.9231 11653.4\n1.1 -23349 0 32.0586 11653.4\n1.11 -23000.1 0 33.1763 11653.4\n1.12 -22747 0 34.0897 11653.4\n1.13 -22626 0 34.6619 11653.4\n1.14 -22656.6 0 34.8154 11653.4\n1.15 -22838.5 0 34.5356 11653.4\n1.16 -23150.5 0 33.8694 11653.4\n1.17 -23550 0 32.922 11653.4\n1.18 -23973.8 0 31.8483 11653.4\n1.19 -24339.8 0 30.8363 11653.4\n1.2 -24550.2 0 30.0775 11653.4\n1.21 -24495 0 29.7246 11653.4\n1.22 -24056.8 0 29.8486 11653.4\n1.23 -23116.2 0 30.4155 11653.4\n1.24 -21557.6 0 31.2994 11653.4\n1.25 -19274.7 0 32.3219 11653.4\n1.26 -16176.8 0 33.2965 11653.4\n1.27 -12193.8 0 34.0627 11653.4\n1.28 -7281.75 0 34.5058 11653.4\n1.29 -1426.42 0 34.5652 11653.4\n1.3 5353.3 0 34.2379 11653.4\n1.31 13003.6 0 33.5775 11653.4\n1.32 21435 0 32.6893 11653.4\n1.33 30523.3 0 31.7209 11653.4\n1.34 40111.4 0 30.8441 11653.4\n1.35 50013.2 0 30.225 11653.4\n1.36 60017.9 0 29.9866 11653.4\n1.37 69896.1 0 30.1742 11653.4\n1.38 79406.9 0 30.7413 11653.4\n1.39 88304.8 0 31.5659 11653.4\n1.4 96348 0 32.4856 11653.4\n1.41 103306 0 33.3355 11653.4\n1.42 108970 0 33.9764 11653.4\n1.43 113155 0 34.312 11653.4\n1.44 115713 0 34.2965 11653.4\n1.45 116534 0 33.9373 11653.4\n1.46 115552 0 33.2933 11653.4\n1.47 112750 0 32.4696 11653.4\n1.48 108158 0 31.6062 11653.4\n1.49 101857 0 30.8589 11653.4\n1.5 93973.5 0 30.3705 11653.4\n1.51 84679 0 30.2374 11653.4\n1.52 74183.6 0 30.4828 11653.4\n1.53 62730.5 0 31.0503 11653.4\n1.54 50588.5 0 31.8217 11653.4\n1.55 38044 0 32.6485 11653.4\n1.56 25391.8 0 33.3847 11653.4\n1.57 12926.4 0 33.9104 11653.4\n1.58 932.466 0 34.1461 11653.4\n1.59 -10323.7 0 34.0596 11653.4\n1.6 -20602.4 0 33.668 11653.4\n1.61 -29697.7 0 33.0355 11653.4\n1.62 -37443.6 0 32.2668 11653.4\n1.63 -43718.3 0 31.4948 11653.4\n1.64 -48447.8 0 30.8606 11653.4\n1.65 -51607 0 30.486 11653.4\n1.66 -53219.5 0 30.444 11653.4\n1.67 -53355.7 0 30.7394 11653.4\n1.68 -52129.5 0 31.3074 11653.4\n1.69 -49693 0 32.033 11653.4\n1.7 -46230.6 0 32.7797 11653.4\n1.71 -41951.5 0 33.4173 11653.4\n1.72 -37082.2 0 33.8426 11653.4\n1.73 -31857.8 0 33.9912 11653.4\n1.74 -26513.5 0 33.8433 11653.4\n1.75 -21276.4 0 33.4249 11653.4\n1.76 -16357.9 0 32.805 11653.4\n1.77 -11945.9 0 32.0878 11653.4\n1.78 -8199.74 0 31.3994 11653.4\n1.79 -5244.58 0 30.8672 11653.4\n1.8 -3168.44 0 30.5942 11653.4\n1.81 -2020.1 0 30.6332 11653.4\n1.82 -1808.73 0 30.9733 11653.4\n1.83 -2505.02 0 31.5432 11653.4\n1.84 -4043.73 0 32.2308 11653.4\n1.85 -6327.61 0 32.9098 11653.4\n1.86 -9232.41 0 33.464 11653.4\n1.87 -12612.9 0 33.8044 11653.4\n1.88 -16309.4 0 33.8798 11653.4\n1.89 -20154.9 0 33.6813 11653.4\n1.9 -23982.3 0 33.2426 11653.4\n1.91 -27631.4 0 32.6362 11653.4\n1.92 -30955 0 31.9652 11653.4\n1.93 -33825.5 0 31.3483 11653.4\n1.94 -36139.1 0 30.9002 11653.4\n1.95 -37819.9 0 30.7067 11653.4\n1.96 -38822.6 0 30.804 11653.4\n1.97 -39133.3 0 31.1691 11653.4\n1.98 -38769.7 0 31.7268 11653.4\n1.99 -37779.1 0 32.3689 11653.4\n2 -36236.3 0 32.979 11653.4\n2.01 -34239.2 0 33.4534 11653.4\n2.02 -31903.8 0 33.7162 11653.4\n2.03 -29358.9 0 33.7281 11653.4\n2.04 -26739.8 0 33.4898 11653.4\n2.05 -24181.7 0 33.0417 11653.4\n2.06 -21813.7 0 32.4591 11653.4\n2.07 -19752.2 0 31.8427 11653.4\n2.08 -18095.5 0 31.3035 11653.4\n2.09 -16919.2 0 30.943 11653.4\n2.1 -16272 0 30.8304 11653.4\n2.11 -16173 0 30.9862 11653.4\n2.12 -16610.4 0 31.3767 11653.4\n2.13 -17541.3 0 31.9234 11653.4\n2.14 -18892.7 0 32.5224 11653.4\n2.15 -20564 0 33.0666 11653.4\n2.16 -22430.5 0 33.4642 11653.4\n2.17 -24348.5 0 33.6515 11653.4\n2.18 -26160.4 0 33.6004 11653.4\n2.19 -27701.2 0 33.3208 11653.4\n2.2 -28804.8 0 32.8593 11653.4\n2.21 -29311.4 0 32.2938 11653.4\n2.22 -29073.8 0 31.7227 11653.4\n2.23 -27963.7 0 31.2498 11653.4\n2.24 -25877.9 0 30.9645 11653.4\n2.25 -22742.8 0 30.9215 11653.4\n2.26 -18518.7 0 31.1275 11653.4\n2.27 -13202 0 31.5399 11653.4\n2.28 -6827.17 0 32.0779 11653.4\n2.29 533.184 0 32.6414 11653.4\n2.3 8769.9 0 33.1314 11653.4\n2.31 17739.6 0 33.4665 11653.4\n2.32 27268.5 0 33.5936 11653.4\n2.33 37157.5 0 33.4942 11653.4\n2.34 47187.9 0 33.1862 11653.4\n2.35 57128 0 32.7211 11653.4\n2.36 66740.2 0 32.178 11653.4\n2.37 75788.5 0 31.6526 11653.4\n2.38 84045.6 0 31.2409 11653.4\n2.39 91300 0 31.0207 11653.4\n2.4 97362.9 0 31.0335 11653.4\n2.41 102074 0 31.275 11653.4\n2.42 105306 0 31.696 11653.4\n2.43 106968 0 32.2149 11653.4\n2.44 107011 0 32.7365 11653.4\n2.45 105427 0 33.1698 11653.4\n2.46 102247 0 33.4432 11653.4\n2.47 97545.1 0 33.5136 11653.4\n2.48 91432.3 0 33.3712 11653.4\n2.49 84053.7 0 33.0405 11653.4\n2.5 75584.5 0 32.5774 11653.4\n2.51 66224.1 0 32.0612 11653.4\n2.52 56190.4 0 31.5838 11653.4\n2.53 45713.4 0 31.233 11653.4\n2.54 35028 0 31.0751 11653.4\n2.55 24367.9 0 31.1396 11653.4\n2.56 13958.9 0 31.4121 11653.4\n2.57 4012.96 0 31.8379 11653.4\n2.58 -5277.48 0 32.336 11653.4\n2.59 -13743.8 0 32.816 11653.4\n2.6 -21245.3 0 33.195 11653.4\n2.61 -27671.9 0 33.4107 11653.4\n2.62 -32945.9 0 33.4291 11653.4\n2.63 -37022.9 0 33.2488 11653.4\n2.64 -39891.6 0 32.9004 11653.4\n2.65 -41572.2 0 32.4429 11653.4\n2.66 -42114.7 0 31.9557 11653.4\n2.67 -41596 0 31.5261 11653.4\n2.68 -40116.2 0 31.2338 11653.4\n2.69 -37794.5 0 31.1341 11653.4\n2.7 -34765.2 0 31.2451 11653.4\n2.71 -31172.8 0 31.5439 11653.4\n2.72 -27167.4 0 31.9717 11653.4\n2.73 -22900.5 0 32.4485 11653.4\n2.74 -18520.4 0 32.8888 11653.4\n2.75 -14168.8 0 33.2176 11653.4\n2.76 -9976.72 0 33.3813 11653.4\n2.77 -6062.3 0 33.3544 11653.4\n2.78 -2528.15 0 33.1427 11653.4\n2.79 540.183 0 32.7822 11653.4\n2.8 3075.25 0 32.3344 11653.4\n2.81 5028.13 0 31.8774 11653.4\n2.82 6368.27 0 31.4938 11653.4\n2.83 7082.85 0 31.2549 11653.4\n2.84 7175.6 0 31.2054 11653.4\n2.85 6665.42 0 31.3538 11653.4\n2.86 5584.53 0 31.6696 11653.4\n2.87 3976.57 0 32.0918 11653.4\n2.88 1894.46 0 32.5418 11653.4\n2.89 -601.666 0 32.9401 11653.4\n2.9 -3446.6 0 33.219 11653.4\n2.91 -6572.02 0 33.3332 11653.4\n2.92 -9908.35 0 33.2654 11653.4\n2.93 -13386.4 0 33.0279 11653.4\n2.94 -16939 0 32.661 11653.4\n2.95 -20501.9 0 32.2279 11653.4\n2.96 -24015.2 0 31.805 11653.4\n2.97 -27423.8 0 31.4691 11653.4\n2.98 -30678.4 0 31.2828 11653.4\n2.99 -33735.5 0 31.281 11653.4\n3 -36558.1 0 31.4626 11653.4\n3.01 -39115.6 0 31.7913 11653.4\n3.02 -41383.9 0 32.2043 11653.4\n3.03 -43345.7 0 32.6257 11653.4\n3.04 -44989.8 0 32.9816 11653.4\n3.05 -46311.6 0 33.2121 11653.4\n3.06 -47312.7 0 33.2799 11653.4\n3.07 -48000.4 0 33.1752 11653.4\n3.08 -48388.2 0 32.9164 11653.4\n3.09 -48494.8 0 32.5479 11653.4\n3.1 -48344.1 0 32.1337 11653.4\n3.11 -47964.8 0 31.7475 11653.4\n3.12 -47389.8 0 31.46 11653.4\n3.13 -46655.4 0 31.3252 11653.4\n3.14 -45801.2 0 31.3678 11653.4\n3.15 -44868.4 0 31.5784 11653.4\n3.16 -43899.6 0 31.9156 11653.4\n3.17 -42937.2 0 32.3156 11653.4\n3.18 -42022.5 0 32.7054 11653.4\n3.19 -41194.4 0 33.0172 11653.4\n3.2 -40488.2 0 33.1983 11653.4\n3.21 -39933.9 0 33.2196 11653.4\n3.22 -39555.7 0 33.0783 11653.4\n3.23 -39370.2 0 32.7987 11653.4\n3.24 -39385.6 0 32.4286 11653.4\n3.25 -39601.1 0 32.0326 11653.4\n3.26 -40006.1 0 31.6816 11653.4\n3.27 -40579.8 0 31.4403 11653.4\n3.28 -41291.6 0 31.3539 11653.4\n3.29 -42101.2 0 31.4382 11653.4\n3.3 -42959.7 0 31.6762 11653.4\n3.31 -43809.9 0 32.0217 11653.4\n3.32 -44588.8 0 32.4106 11653.4\n3.33 -45228.6 0 32.7731 11653.4\n3.34 -45658.8 0 33.0468 11653.4\n3.35 -45809 0 33.1861 11653.4\n3.36 -45610.6 0 33.1689 11653.4\n3.37 -44999.9 0 32.999 11653.4\n3.38 -43919.8 0 32.7056 11653.4\n3.39 -42323.1 0 32.3393 11653.4\n3.4 -40173.9 0 31.9643 11653.4\n3.41 -37449.7 0 31.6484 11653.4\n3.42 -34143.3 0 31.4497 11653.4\n3.43 -30263.4 0 31.4054 11653.4\n3.44 -25835.3 0 31.523 11653.4\n3.45 -20901.6 0 31.779 11653.4\n3.46 -15521 0 32.1244 11653.4\n3.47 -9767.61 0 32.4953 11653.4\n3.48 -3729.62 0 32.8257 11653.4\n3.49 2492.93 0 33.0591 11653.4\n3.5 8790.54 0 33.1566 11653.4\n3.51 15047 0 33.103 11653.4\n3.52 21142.8 0 32.908 11653.4\n3.53 26957.7 0 32.6052 11653.4\n3.54 32375 0 32.2469 11653.4\n3.55 37284 0 31.8966 11653.4\n3.56 41584 0 31.6179 11653.4\n3.57 45186.2 0 31.4625 11653.4\n3.58 48017.3 0 31.4591 11653.4\n3.59 50020.8 0 31.6077 11653.4\n3.6 51159.1 0 31.8789 11653.4\n3.61 51414 0 32.2216 11653.4\n3.62 50787.8 0 32.5728 11653.4\n3.63 49302.3 0 32.8706 11653.4\n3.64 46998.7 0 33.0643 11653.4\n3.65 43935.9 0 33.1217 11653.4\n3.66 40188.6 0 33.0341 11653.4\n3.67 35844.8 0 32.8168 11653.4\n3.68 31003.6 0 32.5071 11653.4\n3.69 25772 0 32.1589 11653.4\n3.7 20261.5 0 31.8342 11653.4\n3.71 14585.3 0 31.5922 11653.4\n3.72 8855.41 0 31.4778 11653.4\n3.73 3179.21 0 31.5121 11653.4\n3.74 -2342.73 0 31.6877 11653.4\n3.75 -7619.03 0 31.9708 11653.4\n3.76 -12569.4 0 32.3081 11653.4\n3.77 -17125.9 0 32.6387 11653.4\n3.78 -21233.9 0 32.9046 11653.4\n3.79 -24852.4 0 33.0607 11653.4\n3.8 -27953.9 0 33.0815 11653.4\n3.81 -30523.7 0 32.9642 11653.4\n3.82 -32559.1 0 32.7292 11653.4\n3.83 -34067.9 0 32.4169 11653.4\n3.84 -35067.1 0 32.0821 11653.4\n3.85 -35580.5 0 31.7846 11653.4\n3.86 -35637.5 0 31.5791 11653.4\n3.87 -35271 0 31.5037 11653.4\n3.88 -34515.7 0 31.5721 11653.4\n3.89 -33406.5 0 31.7705 11653.4\n3.9 -31977.4 0 32.0609 11653.4\n3.91 -30260.2 0 32.3895 11653.4\n3.92 -28284.3 0 32.6972 11653.4\n3.93 -26076 0 32.9305 11653.4\n3.94 -23658.8 0 33.0501 11653.4\n3.95 -21053.8 0 33.0366 11653.4\n3.96 -18280.5 0 32.8928 11653.4\n3.97 -15357.4 0 32.6435 11653.4\n3.98 -12303.6 0 32.332 11653.4\n3.99 -9139.65 0 32.013 11653.4\n4 -5888.76 0 31.7441 11653.4\n4.01 -2578.12 0 31.5746 11653.4\n4.02 760.329 0 31.5361 11653.4\n4.03 4089.17 0 31.6352 11653.4\n4.04 7365.15 0 31.8525 11653.4\n4.05 10539.2 0 32.1467 11653.4\n4.06 13557 0 32.4638 11653.4\n4.07 16359.4 0 32.7473 11653.4\n4.08 18884.3 0 32.9482 11653.4\n4.09 21068 0 33.0328 11653.4\n4.1 22847 0 32.9875 11653.4\n4.11 24160.9 0 32.8205 11653.4\n4.12 24954.1 0 32.5607 11653.4\n4.13 25179 0 32.2531 11653.4\n4.14 24798.1 0 31.9523 11653.4\n4.15 23786.7 0 31.7128 11653.4\n4.16 22134.8 0 31.5785 11653.4\n4.17 19848.7 0 31.5745 11653.4\n4.18 16952.9 0 31.7008 11653.4\n4.19 13490 0 31.933 11653.4\n4.2 9521.46 0 32.2274 11653.4\n4.21 5126.58 0 32.5304 11653.4\n4.22 401.474 0 32.7883 11653.4\n4.23 -4542.97 0 32.9569 11653.4\n4.24 -9583.69 0 33.008 11653.4\n4.25 -14588.6 0 32.9337 11653.4\n4.26 -19420.2 0 32.7469 11653.4\n4.27 -23939.9 0 32.48 11653.4\n4.28 -28011.7 0 32.1795 11653.4\n4.29 -31507.2 0 31.899 11653.4\n4.3 -34309.6 0 31.6896 11653.4\n4.31 -36317.9 0 31.5897 11653.4\n4.32 -37450.4 0 31.6179 11653.4\n4.33 -37648.2 0 31.7682 11653.4\n4.34 -36877.6 0 32.0117 11653.4\n4.35 -35131.7 0 32.3032 11653.4\n4.36 -32431.8 0 32.5899 11653.4\n4.37 -28826.8 0 32.8214 11653.4\n4.38 -24392.9 0 32.9582 11653.4\n4.39 -19231.2 0 32.9776 11653.4\n4.4 -13465.5 0 32.8769 11653.4\n4.41 -7238.43 0 32.6736 11653.4\n4.42 -707.454 0 32.403 11653.4\n4.43 5959.94 0 32.1125 11653.4\n4.44 12591.4 0 31.8542 11653.4\n4.45 19014.8 0 31.6752 11653.4\n4.46 25064.3 0 31.6087 11653.4\n4.47 30584.7 0 31.6666 11653.4\n4.48 35437.1 0 31.8375 11653.4\n4.49 39502.6 0 32.089 11653.4\n4.5 42686.6 0 32.3746 11653.4\n4.51 44921.4 0 32.643 11653.4\n4.52 46168.3 0 32.8474 11653.4\n4.53 46418.3 0 32.953 11653.4\n4.54 45692.4 0 32.9425 11653.4\n4.55 44040.7 0 32.8181 11653.4\n4.56 41539.8 0 32.6014 11653.4\n4.57 38290.2 0 32.3301 11653.4\n4.58 34412.9 0 32.0521 11653.4\n4.59 30044.1 0 31.8173 11653.4\n4.6 25331.1 0 31.6688 11653.4\n4.61 20426.9 0 31.634 11653.4\n4.62 15484.4 0 31.719 11653.4\n4.63 10651.6 0 31.9073 11653.4\n4.64 6066.43 0 32.1633 11653.4\n4.65 1851.91 0 32.4403 11653.4\n4.66 -1887.54 0 32.6887 11653.4\n4.67 -5069.48 0 32.8655 11653.4\n4.68 -7635.8 0 32.9408 11653.4\n4.69 -9554.14 0 32.9022 11653.4\n4.7 -10818.4 0 32.7569 11653.4\n4.71 -11448 0 32.5299 11653.4\n4.72 -11486.8 0 32.2609 11653.4\n4.73 -11000.1 0 31.9975 11653.4\n4.74 -10072.1 0 31.7875 11653.4\n4.75 -8801.7 0 31.6692 11653.4\n4.76 -7298.05 0 31.6646 11653.4\n4.77 -5676.27 0 31.774 11653.4\n4.78 -4052.39 0 31.9764 11653.4\n4.79 -2538.71 0 32.234 11653.4\n4.8 -1239.22 0 32.4998 11653.4\n4.81 -245.526 0 32.7269 11653.4\n4.82 366.679 0 32.876 11653.4\n4.83 540.487 0 32.922 11653.4\n4.84 239.806 0 32.8576 11653.4\n4.85 -549.467 0 32.6941 11653.4\n4.86 -1819.18 0 32.46 11653.4\n4.87 -3539.58 0 32.1961 11653.4\n4.88 -5660.81 0 31.9497 11653.4\n4.89 -8115.23 0 31.7653 11653.4\n4.9 -10820.4 0 31.677 11653.4\n4.91 -13682.8 0 31.7009 11653.4\n4.92 -16601.4 0 31.832 11653.4\n4.93 -19472.6 0 32.0454 11653.4\n4.94 -22193.9 0 32.3017 11653.4\n4.95 -24668.2 0 32.5543 11653.4\n4.96 -26808.1 0 32.7589 11653.4\n4.97 -28539.1 0 32.8804 11653.4\n4.98 -29802.4 0 32.8983 11653.4\n4.99 -30557.5 0 32.8101 11653.4\n5 -30783.4 0 32.6311 11653.4\n5.01 -30479.2 0 32.3926 11653.4\n5.02 -29663.8 0 32.1365 11653.4\n5.03 -28375.4 0 31.9087 11653.4\n5.04 -26668.9 0 31.7506 11653.4\n5.05 -24613.9 0 31.6915 11653.4\n5.06 -22291.2 0 31.7419 11653.4\n5.07 -19789.8 0 31.8921 11653.4\n5.08 -17202.2 0 32.1136 11653.4\n5.09 -14621.1 0 32.3658 11653.4\n5.1 -12135.1 0 32.6034 11653.4\n5.11 -9824.96 0 32.7847 11653.4\n5.12 -7760.23 0 32.8787 11653.4\n5.13 -5996.2 0 32.8699 11653.4\n5.14 -4571.74 0 32.76 11653.4\n5.15 -3507.64 0 32.5683 11653.4\n5.16 -2805.86 0 32.3282 11653.4\n5.17 -2449.52 0 32.082 11653.4\n5.18 -2403.76 0 31.8741 11653.4\n5.19 -2617.36 0 31.7425 11653.4\n5.2 -3025.07 0 31.7114 11653.4\n5.21 -3550.57 0 31.7862 11653.4\n5.22 -4109.92 0 31.9525 11653.4\n5.23 -4615.34 0 32.1793 11653.4\n5.24 -4979.24 0 32.425 11653.4\n5.25 -5118.18 0 32.6458 11653.4\n5.26 -4956.82 0 32.8032 11653.4\n5.27 -4431.42 0 32.8705 11653.4\n5.28 -3493.02 0 32.8365 11653.4\n5.29 -2109.91 0 32.7073 11653.4\n5.3 -269.517 0 32.5055 11653.4\n5.31 2020.58 0 32.2664 11653.4\n5.32 4732.38 0 32.0322 11653.4\n5.33 7818.11 0 31.8455 11653.4\n5.34 11211.6 0 31.7403 11653.4\n5.35 14830.6 0 31.7359 11653.4\n5.36 18579.5 0 31.8329 11653.4\n5.37 22352.9 0 32.0126 11653.4\n5.38 26039.7 0 32.2418 11653.4\n5.39 29526.9 0 32.4788 11653.4\n5.4 32704.2 0 32.6816 11653.4\n5.41 35468.4 0 32.8149 11653.4\n5.42 37727 0 32.8563 11653.4\n5.43 39402.4 0 32.799 11653.4\n5.44 40434.8 0 32.6531 11653.4\n5.45 40784.7 0 32.4441 11653.4\n5.46 40434.7 0 32.2086 11653.4\n5.47 39390.4 0 31.9886 11653.4\n5.48 37680.7 0 31.824 11653.4\n5.49 35356.5 0 31.7449 11653.4\n5.5 32489.4 0 31.7659 11653.4\n5.51 29169.3 0 31.8825 11653.4\n5.52 25501.1 0 32.0729 11653.4\n5.53 21601.1 0 32.3017 11653.4\n5.54 17592.6 0 32.5278 11653.4\n5.55 13602.1 0 32.7112 11653.4\n5.56 9754.06 0 32.8202 11653.4\n5.57 6166.96 0 32.8366 11653.4\n5.58 2948.83 0 32.7578 11653.4\n5.59 193.521 0 32.5976 11653.4\n5.6 -2022.63 0 32.384 11653.4\n5.61 -3643.41 0 32.1546 11653.4\n5.62 -4634.59 0 31.9505 11653.4\n5.63 -4984.98 0 31.8088 11653.4\n5.64 -4706.62 0 31.7556 11653.4\n5.65 -3834.09 0 31.8003 11653.4\n5.66 -2422.95 0 31.9344 11653.4\n5.67 -547.494 0 32.1327 11653.4\n5.68 1702.24 0 32.3587 11653.4\n5.69 4224.06 0 32.572 11653.4\n5.7 6907.51 0 32.735 11653.4\n5.71 9638.21 0 32.8198 11653.4\n5.72 12302.2 0 32.8121 11653.4\n5.73 14790.1 0 32.7136 11653.4\n5.74 17001.4 0 32.5414 11653.4\n5.75 18848.2 0 32.3257 11653.4\n5.76 20258.3 0 32.1045 11653.4\n5.77 21177.7 0 31.9177 11653.4\n5.78 21572.7 0 31.7993 11653.4\n5.79 21430.9 0 31.771 11653.4\n5.8 20761.5 0 31.8378 11653.4\n5.81 19594.7 0 31.9869 11653.4\n5.82 17980.4 0 32.1905 11653.4\n5.83 15986.3 0 32.4116 11653.4\n5.84 13694.7 0 32.6105 11653.4\n5.85 11200 0 32.7527 11653.4\n5.86 8604.33 0 32.8137 11653.4\n5.87 6014.04 0 32.7834 11653.4\n5.88 3535.52 0 32.6673 11653.4\n5.89 1271.19 0 32.4856 11653.4\n5.9 -684.316 0 32.2702 11653.4\n5.91 -2247.67 0 32.0593 11653.4\n5.92 -3349.88 0 31.891 11653.4\n5.93 -3938.83 0 31.796 11653.4\n5.94 -3981.07 0 31.7916 11653.4\n5.95 -3463.01 0 31.8785 11653.4\n5.96 -2391.3 0 32.04 11653.4\n5.97 -792.533 0 32.2464 11653.4\n5.98 1287.86 0 32.4602 11653.4\n5.99 3787.26 0 32.6433 11653.4\n6 6628.25 0 32.764 11653.4\n6.01 9721.36 0 32.8018 11653.4\n6.02 12968.3 0 32.7503 11653.4\n6.03 16265.4 0 32.6189 11653.4\n6.04 19507.2 0 32.4303 11653.4\n6.05 22590.1 0 32.2177 11653.4\n6.06 25415.7 0 32.0192 11653.4\n6.07 27894.2 0 31.8705 11653.4\n6.08 29947.2 0 31.7989 11653.4\n6.09 31509.7 0 31.8175 11653.4\n6.1 32532.6 0 31.9224 11653.4\n6.11 32983.4 0 32.094 11653.4\n6.12 32847.5 0 32.3006 11653.4\n6.13 32127.3 0 32.505 11653.4\n6.14 30842.7 0 32.671 11653.4\n6.15 29029.1 0 32.77 11653.4\n6.16 26736.4 0 32.785 11653.4\n6.17 24026.6 0 32.7139 11653.4\n6.18 20971.6 0 32.569 11653.4\n6.19 17650.4 0 32.3758 11653.4\n6.2 14146.5 0 32.1684 11653.4\n6.21 10545.2 0 31.9838 11653.4\n6.22 6930.78 0 31.8556 11653.4\n6.23 3383.92 0 31.8073 11653.4\n6.24 -20.3692 0 31.8476 11653.4\n6.25 -3214.8 0 31.9686 11653.4\n6.26 -6141.32 0 32.1479 11653.4\n6.27 -8752.24 0 32.3525 11653.4\n6.28 -11010.9 0 32.5457 11653.4\n6.29 -12892 0 32.6936 11653.4\n6.3 -14381.3 0 32.7706 11653.4\n6.31 -15475 0 32.7637 11653.4\n6.32 -16179.1 0 32.6743 11653.4\n6.33 -16507.9 0 32.5182 11653.4\n6.34 -16482.9 0 32.3225 11653.4\n6.35 -16130.8 0 32.1221 11653.4\n6.36 -15482.5 0 31.9529 11653.4\n6.37 -14571 0 31.8458 11653.4\n6.38 -13430 0 31.8202 11653.4\n6.39 -12092.8 0 31.8808 11653.4\n6.4 -10591 0 32.0161 11653.4\n6.41 -8953.12 0 32.2009 11653.4\n6.42 -7204.83 0 32.4015 11653.4\n6.43 -5367.8 0 32.5822 11653.4\n6.44 -3460 0 32.7113 11653.4\n6.45 -1495.73 0 32.7666 11653.4\n6.46 513.937 0 32.7388 11653.4\n6.47 2560.53 0 32.6329 11653.4\n6.48 4637.47 0 32.4675 11653.4\n6.49 6739.13 0 32.2715 11653.4\n6.5 8860.04 0 32.0798 11653.4\n6.51 10993.9 0 31.9269 11653.4\n6.52 13132.8 0 31.8408 11653.4\n6.53 15266.5 0 31.8371 11653.4\n6.54 17382.1 0 31.9163 11653.4\n6.55 19463.2 0 32.0636 11653.4\n6.56 21490.6 0 32.2516 11653.4\n6.57 23441.5 0 32.4464 11653.4\n6.58 25290.7 0 32.6134 11653.4\n6.59 27010.6 0 32.7235 11653.4\n6.6 28572.4 0 32.7577 11653.4\n6.61 29946.9 0 32.7106 11653.4\n6.62 31105.5 0 32.5903 11653.4\n6.63 32021.5 0 32.418 11653.4\n6.64 32671.4 0 32.2239 11653.4\n6.65 33035.7 0 32.0427 11653.4\n6.66 33100.4 0 31.9071 11653.4\n6.67 32857.5 0 31.8419 11653.4\n6.68 32306 0 31.8589 11653.4\n6.69 31452.2 0 31.9548 11653.4\n6.7 30310.2 0 32.1115 11653.4\n6.71 28901.6 0 32.3004 11653.4\n6.72 27255 0 32.4873 11653.4\n6.73 25405.9 0 32.6393 11653.4\n6.74 23395.4 0 32.7299 11653.4\n6.75 21269.1 0 32.7437 11653.4\n6.76 19075.8 0 32.6786 11653.4\n6.77 16866.2 0 32.546 11653.4\n6.78 14691 0 32.3692 11653.4\n6.79 12599.5 0 32.1793 11653.4\n6.8 10637.8 0 32.0104 11653.4\n6.81 8847.7 0 31.8931 11653.4\n6.82 7264.77 0 31.8488 11653.4\n6.83 5917.6 0 31.8855 11653.4\n6.84 4826.72 0 31.9961 11653.4\n6.85 4003.95 0 32.1601 11653.4\n6.86 3452.07 0 32.3475 11653.4\n6.87 3164.8 0 32.5247 11653.4\n6.88 3127.07 0 32.6604 11653.4\n6.89 3315.64 0 32.7313 11653.4\n6.9 3700 0 32.7252 11653.4\n6.91 4243.46 0 32.6434 11653.4\n6.92 4904.55 0 32.5003 11653.4\n6.93 5638.51 0 32.321 11653.4\n6.94 6398.87 0 32.1373 11653.4\n6.95 7139.12 0 31.9821 11653.4\n6.96 7814.33 0 31.8836 11653.4\n6.97 8382.69 0 31.8599 11653.4\n6.98 8806.92 0 31.9151 11653.4\n6.99 9055.48 0 32.0388 11653.4\n7 9103.57 0 32.2081 11653.4\n7.01 8933.84 0 32.3921 11653.4\n7.02 8536.83 0 32.5581 11653.4\n7.03 7911.14 0 32.677 11653.4\n7.04 7063.23 0 32.7282 11653.4\n7.05 6007.04 0 32.7031 11653.4\n7.06 4763.23 0 32.6063 11653.4\n7.07 3358.29 0 32.4547 11653.4\n7.08 1823.43 0 32.275 11653.4\n7.09 193.29 0 32.0992 11653.4\n7.1 -1495.39 0 31.9589 11653.4\n7.11 -3205.16 0 31.8796 11653.4\n7.12 -4899.22 0 31.8759 11653.4\n7.13 -6542.74 0 31.9482 11653.4\n7.14 -8104.01 0 32.0829 11653.4\n7.15 -9555.48 0 32.2552 11653.4\n7.16 -10874.6 0 32.434 11653.4\n7.17 -12044.3 0 32.5875 11653.4\n7.18 -13053.6 0 32.6887 11653.4\n7.19 -13897.6 0 32.7205 11653.4\n7.2 -14577.1 0 32.6774 11653.4\n7.21 -15098.8 0 32.5671 11653.4\n7.22 -15474.3 0 32.409 11653.4\n7.23 -15719.5 0 32.2309 11653.4\n7.24 -15853.7 0 32.0646 11653.4\n7.25 -15898.8 0 31.9401 11653.4\n7.26 -15877.8 0 31.8803 11653.4\n7.27 -15814.5 0 31.8958 11653.4\n7.28 -15731.7 0 31.9837 11653.4\n7.29 -15650.6 0 32.1276 11653.4\n7.3 -15590.2 0 32.3011 11653.4\n7.31 -15566.1 0 32.4729 11653.4\n7.32 -15590.3 0 32.6127 11653.4\n7.33 -15670.8 0 32.6961 11653.4\n7.34 -15811.3 0 32.7088 11653.4\n7.35 -16011.4 0 32.6489 11653.4\n7.36 -16266.7 0 32.5268 11653.4\n7.37 -16569.2 0 32.364 11653.4\n7.38 -16907.8 0 32.1892 11653.4\n7.39 -17269.2 0 32.0338 11653.4\n7.4 -17638 0 31.9259 11653.4\n7.41 -17998.4 0 31.8851 11653.4\n7.42 -18334 0 31.9188 11653.4\n7.43 -18629.6 0 32.0206 11653.4\n7.44 -18870.9 0 32.1716 11653.4\n7.45 -19046.2 0 32.3442 11653.4\n7.46 -19145.9 0 32.5076 11653.4\n7.47 -19163.9 0 32.6328 11653.4\n7.48 -19097.1 0 32.6982 11653.4\n7.49 -18945.8 0 32.6926 11653.4\n7.5 -18713.8 0 32.6173 11653.4\n7.51 -18407.9 0 32.4853 11653.4\n7.52 -18037.9 0 32.3199 11653.4\n7.53 -17616 0 32.1505 11653.4\n7.54 -17156.1 0 32.0074 11653.4\n7.55 -16673.3 0 31.9166 11653.4\n7.56 -16183.6 0 31.8946 11653.4\n7.57 -15702.5 0 31.9453 11653.4\n7.58 -15245 0 32.0592 11653.4\n7.59 -14824.6 0 32.2152 11653.4\n7.6 -14453.1 0 32.385 11653.4\n7.61 -14139.6 0 32.5383 11653.4\n7.62 -13891 0 32.6481 11653.4\n7.63 -13710.8 0 32.6954 11653.4\n7.64 -13599.8 0 32.6723 11653.4\n7.65 -13555.8 0 32.5829 11653.4\n7.66 -13573.8 0 32.4429 11653.4\n7.67 -13646.2 0 32.277 11653.4\n7.68 -13763.5 0 32.1146 11653.4\n7.69 -13914.3 0 31.9851 11653.4\n7.7 -14086.2 0 31.9119 11653.4\n7.71 -14266.3 0 31.9083 11653.4\n7.72 -14441.5 0 31.9749 11653.4\n7.73 -14599.3 0 32.0992 11653.4\n7.74 -14728.4 0 32.2584 11653.4\n7.75 -14818.8 0 32.4236 11653.4\n7.76 -14862.6 0 32.5654 11653.4\n7.77 -14853.9 0 32.6591 11653.4\n7.78 -14789.3 0 32.6885 11653.4\n7.79 -14667.9 0 32.6487 11653.4\n7.8 -14491.1 0 32.5467 11653.4\n7.81 -14262.6 0 32.4004 11653.4\n7.82 -13988.3 0 32.2357 11653.4\n7.83 -13675.8 0 32.0819 11653.4\n7.84 -13333.9 0 31.9668 11653.4\n7.85 -12972.5 0 31.9114 11653.4\n7.86 -12602.2 0 31.9257 11653.4\n7.87 -12233.4 0 32.0069 11653.4\n7.88 -11875.9 0 32.1398 11653.4\n7.89 -11539.2 0 32.3003 11653.4\n7.9 -11231.2 0 32.4593 11653.4\n7.91 -10958.4 0 32.5887 11653.4\n7.92 -10725.5 0 32.666 11653.4\n7.93 -10535.6 0 32.6778 11653.4\n7.94 -10389.6 0 32.6223 11653.4\n7.95 -10286.6 0 32.5092 11653.4\n7.96 -10223.9 0 32.3584 11653.4\n7.97 -10197.2 0 32.1966 11653.4\n7.98 -10200.9 0 32.0528 11653.4\n7.99 -10228.4 0 31.9529 11653.4\n8 -10272.4 0 31.9151 11653.4\n8.01 -10325.1 0 31.9463 11653.4\n8.02 -10379 0 32.0406 11653.4\n8.03 -10426.7 0 32.1804 11653.4\n8.04 -10461.9 0 32.3403 11653.4\n8.05 -10478.9 0 32.4917 11653.4\n8.06 -10473.4 0 32.6079 11653.4\n8.07 -10442.3 0 32.6685 11653.4\n8.08 -10384.1 0 32.6633 11653.4\n8.09 -10298.7 0 32.5934 11653.4\n8.1 -10187.4 0 32.471 11653.4\n8.11 -10052.5 0 32.3176 11653.4\n8.12 -9897.85 0 32.1605 11653.4\n8.13 -9727.82 0 32.0279 11653.4\n8.14 -9547.51 0 31.9437 11653.4\n8.15 -9362.28 0 31.9234 11653.4\n8.16 -9177.53 0 31.9705 11653.4\n8.17 -8998.39 0 32.0762 11653.4\n8.18 -8829.43 0 32.221 11653.4\n8.19 -8674.47 0 32.3786 11653.4\n8.2 -8536.37 0 32.5209 11653.4\n8.21 -8416.89 0 32.6229 11653.4\n8.22 -8316.64 0 32.6669 11653.4\n8.23 -8235.01 0 32.6454 11653.4\n8.24 -8170.27 0 32.5623 11653.4\n8.25 -8119.63 0 32.4322 11653.4\n8.26 -8079.43 0 32.278 11653.4\n8.27 -8045.31 0 32.1272 11653.4\n8.28 -8012.45 0 32.0069 11653.4\n8.29 -7975.84 0 31.9389 11653.4\n8.3 -7930.52 0 31.9357 11653.4\n8.31 -7871.84 0 31.9976 11653.4\n8.32 -7795.73 0 32.1131 11653.4\n8.33 -7698.89 0 32.261 11653.4\n8.34 -7578.98 0 32.4146 11653.4\n8.35 -7434.73 0 32.5466 11653.4\n8.36 -7266.05 0 32.6338 11653.4\n8.37 -7074.02 0 32.6613 11653.4\n8.38 -6860.87 0 32.6243 11653.4\n8.39 -6629.86 0 32.5294 11653.4\n8.4 -6385.18 0 32.3934 11653.4\n8.41 -6131.7 0 32.2402 11653.4\n8.42 -5874.82 0 32.0972 11653.4\n8.43 -5620.14 0 31.9902 11653.4\n8.44 -5373.26 0 31.9387 11653.4\n8.45 -5139.48 0 31.9519 11653.4\n8.46 -4923.57 0 32.0273 11653.4\n8.47 -4729.52 0 32.1509 11653.4\n8.48 -4560.36 0 32.3001 11653.4\n8.49 -4418.01 0 32.448 11653.4\n8.5 -4303.19 0 32.5685 11653.4\n8.51 -4215.34 0 32.6405 11653.4\n8.52 -4152.67 0 32.6515 11653.4\n8.53 -4112.2 0 32.5998 11653.4\n8.54 -4089.92 0 32.4945 11653.4\n8.55 -4080.92 0 32.3542 11653.4\n8.56 -4079.62 0 32.2037 11653.4\n8.57 -4080.05 0 32.0699 11653.4\n8.58 -4076.04 0 31.9771 11653.4\n8.59 -4061.55 0 31.9421 11653.4\n8.6 -4030.95 0 31.9712 11653.4\n8.61 -3979.2 0 32.059 11653.4\n8.62 -3902.14 0 32.1892 11653.4\n8.63 -3796.67 0 32.3381 11653.4\n8.64 -3660.86 0 32.4791 11653.4\n8.65 -3494.07 0 32.5873 11653.4\n8.66 -3296.98 0 32.6437 11653.4\n8.67 -3071.54 0 32.6388 11653.4\n8.68 -2820.91 0 32.5735 11653.4\n8.69 -2549.34 0 32.4592 11653.4\n8.7 -2261.95 0 32.3162 11653.4\n8.71 -1964.54 0 32.1698 11653.4\n8.72 -1663.34 0 32.0463 11653.4\n8.73 -1364.73 0 31.9681 11653.4\n8.74 -1074.98 0 31.9493 11653.4\n8.75 -799.962 0 31.9934 11653.4\n8.76 -544.924 0 32.092 11653.4\n8.77 -314.261 0 32.2271 11653.4\n8.78 -111.325 0 32.3742 11653.4\n8.79 61.7014 0 32.507 11653.4\n8.8 203.898 0 32.6022 11653.4\n8.81 315.629 0 32.6432 11653.4\n8.82 398.525 0 32.623 11653.4\n8.83 455.389 0 32.5453 11653.4\n8.84 490.075 0 32.4238 11653.4\n8.85 507.3 0 32.2798 11653.4\n8.86 512.434 0 32.1391 11653.4\n8.87 511.258 0 32.0269 11653.4\n8.88 509.701 0 31.9636 11653.4\n8.89 513.58 0 31.9606 11653.4\n8.9 528.34 0 32.0185 11653.4\n8.91 558.819 0 32.1263 11653.4\n8.92 609.034 0 32.2645 11653.4\n8.93 682.01 0 32.4081 11653.4\n8.94 779.654 0 32.5314 11653.4\n8.95 902.673 0 32.6129 11653.4\n8.96 1050.56 0 32.6384 11653.4\n8.97 1221.6 0 32.6037 11653.4\n8.98 1413 0 32.5149 11653.4\n8.99 1620.96 0 32.3876 11653.4\n9 1840.91 0 32.2444 11653.4\n9.01 2067.66 0 32.1108 11653.4\n9.02 2295.67 0 32.0108 11653.4\n9.03 2519.3 0 31.9627 11653.4\n9.04 2733.02 0 31.9751 11653.4\n9.05 2931.72 0 32.0457 11653.4\n9.06 3110.86 0 32.1613 11653.4\n9.07 3266.72 0 32.301 11653.4\n9.08 3396.55 0 32.4395 11653.4\n9.09 3498.66 0 32.5523 11653.4\n9.1 3572.51 0 32.6198 11653.4\n9.11 3618.73 0 32.6301 11653.4\n9.12 3639.05 0 32.5818 11653.4\n9.13 3636.26 0 32.4832 11653.4\n9.14 3614.03 0 32.3518 11653.4\n9.15 3576.8 0 32.2109 11653.4\n9.16 3529.49 0 32.0856 11653.4\n9.17 3477.37 0 31.9986 11653.4\n9.18 3425.76 0 31.9656 11653.4\n9.19 3379.81 0 31.9927 11653.4\n9.2 3344.26 0 32.0746 11653.4\n9.21 3323.28 0 32.1964 11653.4\n9.22 3320.2 0 32.3358 11653.4\n9.23 3337.47 0 32.4678 11653.4\n9.24 3376.46 0 32.5692 11653.4\n9.25 3437.49 0 32.6222 11653.4\n9.26 3519.78 0 32.6178 11653.4\n9.27 3621.5 0 32.5568 11653.4\n9.28 3739.89 0 32.45 11653.4\n9.29 3871.36 0 32.3162 11653.4\n9.3 4011.7 0 32.1793 11653.4\n9.31 4156.27 0 32.0637 11653.4\n9.32 4300.19 0 31.9904 11653.4\n9.33 4438.63 0 31.9727 11653.4\n9.34 4566.99 0 32.0138 11653.4\n9.35 4681.16 0 32.1059 11653.4\n9.36 4777.68 0 32.2321 11653.4\n9.37 4853.93 0 32.3697 11653.4\n9.38 4908.25 0 32.4939 11653.4\n9.39 4940.04 0 32.5829 11653.4\n9.4 4949.79 0 32.6212 11653.4\n9.41 4939.06 0 32.6023 11653.4\n9.42 4910.43 0 32.5295 11653.4\n9.43 4867.4 0 32.4157 11653.4\n9.44 4814.21 0 32.281 11653.4\n9.45 4755.7 0 32.1493 11653.4\n9.46 4697.09 0 32.0444 11653.4\n9.47 4643.71 0 31.9853 11653.4\n9.48 4600.81 0 31.9826 11653.4\n9.49 4573.31 0 32.0368 11653.4\n9.5 4565.58 0 32.1378 11653.4\n9.51 4581.23 0 32.2672 11653.4\n9.52 4622.97 0 32.4016 11653.4\n9.53 4692.47 0 32.517 11653.4\n9.54 4790.24 0 32.5932 11653.4\n9.55 4915.69 0 32.6169 11653.4\n9.56 5067.05 0 32.5842 11653.4\n9.57 5241.47 0 32.5008 11653.4\n9.58 5435.18 0 32.3814 11653.4\n9.59 5643.56 0 32.2471 11653.4\n9.6 5861.43 0 32.1219 11653.4\n9.61 6083.16 0 32.0285 11653.4\n9.62 6303 0 31.9836 11653.4\n9.63 6515.29 0 31.9954 11653.4\n9.64 6714.69 0 32.0618 11653.4\n9.65 6896.42 0 32.1703 11653.4\n9.66 7056.47 0 32.3012 11653.4\n9.67 7191.76 0 32.4311 11653.4\n9.68 7300.29 0 32.5367 11653.4\n9.69 7381.2 0 32.5997 11653.4\n9.7 7434.85 0 32.6091 11653.4\n9.71 7462.76 0 32.5633 11653.4\n9.72 7467.55 0 32.4706 11653.4\n9.73 7452.86 0 32.347 11653.4\n9.74 7423.17 0 32.2147 11653.4\n9.75 7383.57 0 32.0973 11653.4\n9.76 7339.6 0 32.0158 11653.4\n9.77 7296.95 0 31.9853 11653.4\n9.78 7261.23 0 32.011 11653.4\n9.79 7237.71 0 32.0882 11653.4\n9.8 7231.08 0 32.2028 11653.4\n9.81 7245.23 0 32.3338 11653.4\n9.82 7283.07 0 32.4579 11653.4\n9.83 7346.35 0 32.553 11653.4\n9.84 7435.63 0 32.6025 11653.4\n9.85 7550.15 0 32.598 11653.4\n9.86 7687.89 0 32.5403 11653.4\n9.87 7845.6 0 32.4395 11653.4\n9.88 8018.92 0 32.3134 11653.4\n9.89 8202.53 0 32.1845 11653.4\n9.9 8390.37 0 32.0759 11653.4\n9.91 8575.81 0 32.0072 11653.4\n9.92 8751.99 0 31.9908 11653.4\n9.93 8912.02 0 32.0296 11653.4\n9.94 9049.27 0 32.1165 11653.4\n9.95 9157.66 0 32.2356 11653.4\n9.96 9231.85 0 32.3652 11653.4\n9.97 9267.53 0 32.4822 11653.4\n9.98 9261.52 0 32.566 11653.4\n9.99 9211.95 0 32.602 11653.4\n10 9118.33 0 32.584 11653.4\n10.01 8981.58 0 32.5152 11653.4\n10.02 8804.03 0 32.4078 11653.4\n10.03 8589.28 0 32.2807 11653.4\n10.04 8342.15 0 32.1567 11653.4\n10.05 8068.44 0 32.0579 11653.4\n10.06 7774.76 0 32.0022 11653.4\n10.07 7468.26 0 31.9998 11653.4\n10.08 7156.4 0 32.051 11653.4\n10.09 6846.65 0 32.1463 11653.4\n10.1 6546.23 0 32.2684 11653.4\n10.11 6261.84 0 32.3952 11653.4\n10.12 5999.45 0 32.5041 11653.4\n10.13 5764.06 0 32.576 11653.4\n10.14 5559.56 0 32.5984 11653.4\n10.15 5388.59 0 32.5676 11653.4\n10.16 5252.45 0 32.4889 11653.4\n10.17 5151.12 0 32.3762 11653.4\n10.18 5083.26 0 32.2496 11653.4\n10.19 5046.26 0 32.1315 11653.4\n10.2 5036.45 0 32.0433 11653.4\n10.21 5049.17 0 32.0009 11653.4\n10.22 5079.03 0 32.012 11653.4\n10.23 5120.12 0 32.0744 11653.4\n10.24 5166.23 0 32.1767 11653.4\n10.25 5211.12 0 32.3002 11653.4\n10.26 5248.78 0 32.4228 11653.4\n10.27 5273.6 0 32.5226 11653.4\n10.28 5280.65 0 32.5821 11653.4\n10.29 5265.79 0 32.5912 11653.4\n10.3 5225.86 0 32.5482 11653.4\n10.31 5158.78 0 32.4608 11653.4\n10.32 5063.57 0 32.3445 11653.4\n10.33 4940.39 0 32.2197 11653.4\n10.34 4790.51 0 32.109 11653.4\n10.35 4616.21 0 32.0321 11653.4\n10.36 4420.66 0 32.0032 11653.4\n10.37 4207.82 0 32.0273 11653.4\n10.38 3982.21 0 32.0999 11653.4\n10.39 3748.74 0 32.2078 11653.4\n10.4 3512.52 0 32.3313 11653.4\n10.41 3278.61 0 32.4483 11653.4\n10.42 3051.89 0 32.5381 11653.4\n10.43 2836.82 0 32.5849 11653.4\n10.44 2637.3 0 32.5808 11653.4\n10.45 2456.54 0 32.5264 11653.4\n10.46 2296.97 0 32.4315 11653.4\n10.47 2160.15 0 32.3128 11653.4\n10.48 2046.79 0 32.1913 11653.4\n10.49 1956.69 0 32.0889 11653.4\n10.5 1888.87 0 32.0241 11653.4\n10.51 1841.61 0 32.0085 11653.4\n10.52 1812.55 0 32.0451 11653.4\n10.53 1798.86 0 32.1269 11653.4\n10.54 1797.34 0 32.239 11653.4\n10.55 1804.65 0 32.3611 11653.4\n10.56 1817.38 0 32.4714 11653.4\n10.57 1832.28 0 32.5505 11653.4\n10.58 1846.37 0 32.5845 11653.4\n10.59 1857.06 0 32.5676 11653.4\n10.6 1862.27 0 32.5028 11653.4\n10.61 1860.47 0 32.4016 11653.4\n10.62 1850.78 0 32.2819 11653.4\n10.63 1832.9 0 32.165 11653.4\n10.64 1807.16 0 32.0719 11653.4\n10.65 1774.42 0 32.0195 11653.4\n10.66 1736.04 0 32.0172 11653.4\n10.67 1693.72 0 32.0654 11653.4\n10.68 1649.45 0 32.1551 11653.4\n10.69 1605.31 0 32.2701 11653.4\n10.7 1563.38 0 32.3895 11653.4\n10.71 1525.62 0 32.4921 11653.4\n10.72 1493.69 0 32.5598 11653.4\n10.73 1468.89 0 32.5809 11653.4\n10.74 1452.05 0 32.5517 11653.4\n10.75 1443.46 0 32.4775 11653.4\n10.76 1442.86 0 32.3713 11653.4\n10.77 1449.37 0 32.252 11653.4\n10.78 1461.57 0 32.1409 11653.4\n10.79 1477.53 0 32.0579 11653.4\n10.8 1494.88 0 32.0182 11653.4\n10.81 1510.94 0 32.0288 11653.4\n10.82 1522.8 0 32.0879 11653.4\n10.83 1527.5 0 32.1843 11653.4\n10.84 1522.14 0 32.3008 11653.4\n10.85 1504.06 0 32.4163 11653.4\n10.86 1470.95 0 32.5102 11653.4\n10.87 1420.99 0 32.5662 11653.4\n10.88 1353 0 32.5745 11653.4\n10.89 1266.44 0 32.5337 11653.4\n10.9 1161.59 0 32.4511 11653.4\n10.91 1039.45 0 32.3412 11653.4\n10.92 901.86 0 32.2236 11653.4\n10.93 751.359 0 32.1193 11653.4\n10.94 591.184 0 32.0471 11653.4\n10.95 425.136 0 32.0201 11653.4\n10.96 257.463 0 32.0432 11653.4\n10.97 92.7038 0 32.112 11653.4\n10.98 -64.4775 0 32.2139 11653.4\n10.99 -209.468 0 32.3305 11653.4\n11 -337.889 0 32.4409 11653.4\n11.01 -445.769 0 32.5255 11653.4\n11.02 -529.711 0 32.5694 11653.4\n11.03 -587.037 0 32.5652 11653.4\n11.04 -615.91 0 32.5136 11653.4\n11.05 -615.429 0 32.4237 11653.4\n11.06 -585.681 0 32.3115 11653.4\n11.07 -527.766 0 32.1969 11653.4\n11.08 -443.782 0 32.1005 11653.4\n11.09 -336.766 0 32.0397 11653.4\n11.1 -210.605 0 32.0255 11653.4\n11.11 -69.9154 0 32.0604 11653.4\n11.12 80.1157 0 32.138 11653.4\n11.13 233.901 0 32.2441 11653.4\n11.14 385.649 0 32.3595 11653.4\n11.15 529.56 0 32.4636 11653.4\n11.16 660.037 0 32.538 11653.4\n11.17 771.877 0 32.5697 11653.4\n11.18 860.457 0 32.5533 11653.4\n11.19 921.897 0 32.4916 11653.4\n11.2 953.197 0 32.3957 11653.4\n11.21 952.343 0 32.2824 11653.4\n11.22 918.374 0 32.172 11653.4\n11.23 851.413 0 32.0843 11653.4\n11.24 752.659 0 32.0352 11653.4\n11.25 624.341 0 32.0336 11653.4\n11.26 469.63 0 32.0797 11653.4\n11.27 292.521 0 32.1651 11653.4\n11.28 97.6872 0 32.2741 11653.4\n11.29 -109.695 0 32.3871 11653.4\n11.3 -324.129 0 32.4841 11653.4\n11.31 -540.002 0 32.5478 11653.4\n11.32 -751.779 0 32.5673 11653.4\n11.33 -954.201 0 32.5391 11653.4\n11.34 -1142.47 0 32.4684 11653.4\n11.35 -1312.39 0 32.3675 11653.4\n11.36 -1460.55 0 32.2543 11653.4\n11.37 -1584.38 0 32.1492 11653.4\n11.38 -1682.24 0 32.0709 11653.4\n11.39 -1753.49 0 32.0337 11653.4\n11.4 -1798.45 0 32.0443 11653.4\n11.41 -1818.35 0 32.1007 11653.4\n11.42 -1815.31 0 32.1925 11653.4\n11.43 -1792.21 0 32.303 11653.4\n11.44 -1752.55 0 32.4125 11653.4\n11.45 -1700.32 0 32.5014 11653.4\n11.46 -1639.79 0 32.5541 11653.4\n11.47 -1575.42 0 32.5615 11653.4\n11.48 -1511.59 0 32.5223 11653.4\n11.49 -1452.48 0 32.4435 11653.4\n11.5 -1401.91 0 32.339 11653.4\n11.51 -1363.19 0 32.2273 11653.4\n11.52 -1339 0 32.1285 11653.4\n11.53 -1331.29 0 32.0603 11653.4\n11.54 -1341.26 0 32.0351 11653.4\n11.55 -1369.28 0 32.0574 11653.4\n11.56 -1414.94 0 32.123 11653.4\n11.57 -1477.08 0 32.2201 11653.4\n11.58 -1553.81 0 32.3308 11653.4\n11.59 -1642.69 0 32.4355 11653.4\n11.6 -1740.76 0 32.5156 11653.4\n11.61 -1844.73 0 32.5569 11653.4\n11.62 -1951.1 0 32.5525 11653.4\n11.63 -2056.32 0 32.503 11653.4\n11.64 -2156.93 0 32.4173 11653.4\n11.65 -2249.73 0 32.3105 11653.4\n11.66 -2331.85 0 32.2016 11653.4\n11.67 -2400.92 0 32.1101 11653.4\n11.68 -2455.15 0 32.0526 11653.4\n11.69 -2493.35 0 32.0394 11653.4\n11.7 -2515.02 0 32.073 11653.4\n11.71 -2520.35 0 32.1471 11653.4\n11.72 -2510.14 0 32.2481 11653.4\n11.73 -2485.86 0 32.3579 11653.4\n11.74 -2449.46 0 32.4568 11653.4\n11.75 -2403.37 0 32.5273 11653.4\n11.76 -2350.36 0 32.5571 11653.4\n11.77 -2293.38 0 32.5411 11653.4\n11.78 -2235.5 0 32.4821 11653.4\n11.79 -2179.73 0 32.3905 11653.4\n11.8 -2128.91 0 32.2825 11653.4\n11.81 -2085.61 0 32.1774 11653.4\n11.82 -2052.01 0 32.094 11653.4\n11.83 -2029.82 0 32.0475 11653.4\n11.84 -2020.22 0 32.0462 11653.4\n11.85 -2023.83 0 32.0903 11653.4\n11.86 -2040.71 0 32.1717 11653.4\n11.87 -2070.32 0 32.2755 11653.4\n11.88 -2111.62 0 32.3832 11653.4\n11.89 -2163.1 0 32.4754 11653.4\n11.9 -2222.84 0 32.536 11653.4\n11.91 -2288.62 0 32.5543 11653.4\n11.92 -2358.07 0 32.5273 11653.4\n11.93 -2428.67 0 32.4598 11653.4\n11.94 -2497.98 0 32.3635 11653.4\n11.95 -2563.67 0 32.2558 11653.4\n11.96 -2623.65 0 32.1556 11653.4\n11.97 -2676.16 0 32.0812 11653.4\n11.98 -2719.81 0 32.0459 11653.4\n11.99 -2753.69 0 32.0561 11653.4\n12 -2777.34 0 32.1098 11653.4\n12.01 -2790.77 0 32.1973 11653.4\n12.02 -2794.5 0 32.3026 11653.4\n12.03 -2789.45 0 32.4068 11653.4\n12.04 -2776.91 0 32.4914 11653.4\n12.05 -2758.5 0 32.5415 11653.4\n12.06 -2736.03 0 32.5484 11653.4\n12.07 -2711.46 0 32.5109 11653.4\n12.08 -2686.76 0 32.4358 11653.4\n12.09 -2663.8 0 32.3362 11653.4\n12.1 -2644.33 0 32.2298 11653.4\n12.11 -2629.79 0 32.1357 11653.4\n12.12 -2621.33 0 32.0709 11653.4\n12.13 -2619.68 0 32.047 11653.4\n12.14 -2625.18 0 32.0683 11653.4\n12.15 -2637.7 0 32.131 11653.4\n12.16 -2656.7 0 32.2234 11653.4\n12.17 -2681.21 0 32.3289 11653.4\n12.18 -2709.94 0 32.4286 11653.4\n12.19 -2741.26 0 32.5048 11653.4\n12.2 -2773.37 0 32.5442 11653.4\n12.21 -2804.32 0 32.5398 11653.4\n12.22 -2832.18 0 32.4926 11653.4\n12.23 -2855.06 0 32.4108 11653.4\n12.24 -2871.3 0 32.309 11653.4\n12.25 -2879.48 0 32.2053 11653.4\n12.26 -2878.58 0 32.1182 11653.4\n12.27 -2867.98 0 32.0634 11653.4\n12.28 -2847.55 0 32.051 11653.4\n12.29 -2817.66 0 32.083 11653.4\n12.3 -2779.18 0 32.1535 11653.4\n12.31 -2733.47 0 32.2498 11653.4\n12.32 -2682.31 0 32.3543 11653.4\n12.33 -2627.88 0 32.4485 11653.4\n12.34 -2572.61 0 32.5156 11653.4\n12.35 -2519.13 0 32.544 11653.4\n12.36 -2470.14 0 32.5286 11653.4\n12.37 -2428.26 0 32.4723 11653.4\n12.38 -2395.96 0 32.385 11653.4\n12.39 -2375.38 0 32.2821 11653.4\n12.4 -2368.26 0 32.182 11653.4\n12.41 -2375.84 0 32.1027 11653.4\n12.42 -2398.77 0 32.0585 11653.4\n12.43 -2437.04 0 32.0574 11653.4\n12.44 -2489.98 0 32.0995 11653.4\n12.45 -2556.26 0 32.177 11653.4\n12.46 -2633.87 0 32.276 11653.4\n12.47 -2720.25 0 32.3785 11653.4\n12.48 -2812.29 0 32.4663 11653.4\n12.49 -2906.5 0 32.524 11653.4\n12.5 -2999.11 0 32.5414 11653.4\n12.51 -3086.23 0 32.5155 11653.4\n12.52 -3163.96 0 32.451 11653.4\n12.53 -3228.61 0 32.3593 11653.4\n12.54 -3276.8 0 32.2566 11653.4\n12.55 -3305.64 0 32.1612 11653.4\n12.56 -3312.86 0 32.0904 11653.4\n12.57 -3296.91 0 32.0568 11653.4\n12.58 -3257.05 0 32.0667 11653.4\n12.59 -3193.39 0 32.118 11653.4\n12.6 -3106.98 0 32.2014 11653.4\n12.61 -2999.72 0 32.3017 11653.4\n12.62 -2874.36 0 32.401 11653.4\n12.63 -2734.41 0 32.4817 11653.4\n12.64 -2584.06 0 32.5294 11653.4\n12.65 -2427.98 0 32.5359 11653.4\n12.66 -2271.23 0 32.5001 11653.4\n12.67 -2119.03 0 32.4284 11653.4\n12.68 -1976.6 0 32.3334 11653.4\n12.69 -1848.96 0 32.2321 11653.4\n12.7 -1740.74 0 32.1425 11653.4\n12.71 -1656.02 0 32.0808 11653.4\n12.72 -1598.11 0 32.0582 11653.4\n12.73 -1569.49 0 32.0787 11653.4\n12.74 -1571.66 0 32.1385 11653.4\n12.75 -1605.05 0 32.2266 11653.4\n12.76 -1669.04 0 32.3272 11653.4\n12.77 -1761.91 0 32.4223 11653.4\n12.78 -1880.9 0 32.4948 11653.4\n12.79 -2022.3 0 32.5322 11653.4\n12.8 -2181.55 0 32.528 11653.4\n12.81 -2353.38 0 32.4828 11653.4\n12.82 -2532.04 0 32.4048 11653.4\n12.83 -2711.42 0 32.3077 11653.4\n12.84 -2885.3 0 32.2088 11653.4\n12.85 -3047.56 0 32.1259 11653.4\n12.86 -3192.4 0 32.0739 11653.4\n12.87 -3314.51 0 32.0621 11653.4\n12.88 -3409.3 0 32.0928 11653.4\n12.89 -3473.04 0 32.1602 11653.4\n12.9 -3502.97 0 32.252 11653.4\n12.91 -3497.43 0 32.3518 11653.4\n12.92 -3455.93 0 32.4416 11653.4\n12.93 -3379.11 0 32.5055 11653.4\n12.94 -3268.77 0 32.5325 11653.4\n12.95 -3127.79 0 32.5178 11653.4\n12.96 -2960.04 0 32.464 11653.4\n12.97 -2770.2 0 32.3807 11653.4\n12.98 -2563.68 0 32.2827 11653.4\n12.99 -2346.34 0 32.1874 11653.4\n13 -2124.35 0 32.1119 11653.4\n13.01 -1903.95 0 32.0699 11653.4\n13.02 -1691.25 0 32.069 11653.4\n13.03 -1492.02 0 32.1092 11653.4\n13.04 -1311.5 0 32.1832 11653.4\n13.05 -1154.21 0 32.2775 11653.4\n13.06 -1023.82 0 32.3752 11653.4\n13.07 -923.054 0 32.4588 11653.4\n13.08 -853.573 0 32.5136 11653.4\n13.09 -815.96 0 32.53 11653.4\n13.1 -809.709 0 32.5051 11653.4\n13.11 -833.259 0 32.4435 11653.4\n13.12 -884.069 0 32.356 11653.4\n13.13 -958.716 0 32.2581 11653.4\n13.14 -1053.03 0 32.1674 11653.4\n13.15 -1162.25 0 32.1002 11653.4\n13.16 -1281.19 0 32.0687 11653.4\n13.17 -1404.42 0 32.0784 11653.4\n13.18 -1526.48 0 32.1277 11653.4\n13.19 -1642.02 0 32.2075 11653.4\n13.2 -1746 0 32.3033 11653.4\n13.21 -1833.84 0 32.398 11653.4\n13.22 -1901.57 0 32.4747 11653.4\n13.23 -1945.93 0 32.5198 11653.4\n13.24 -1964.45 0 32.5256 11653.4\n13.25 -1955.54 0 32.4911 11653.4\n13.26 -1918.44 0 32.4223 11653.4\n13.27 -1853.32 0 32.3315 11653.4\n13.28 -1761.14 0 32.2347 11653.4\n13.29 -1643.65 0 32.1494 11653.4\n13.3 -1503.29 0 32.0909 11653.4\n13.31 -1343.06 0 32.0697 11653.4\n13.32 -1166.43 0 32.0898 11653.4\n13.33 -977.209 0 32.1473 11653.4\n13.34 -779.384 0 32.2319 11653.4\n13.35 -577.014 0 32.3282 11653.4\n13.36 -374.085 0 32.419 11653.4\n13.37 -174.405 0 32.4882 11653.4\n13.38 18.5139 0 32.5236 11653.4\n13.39 201.531 0 32.5192 11653.4\n13.4 371.956 0 32.4756 11653.4\n13.41 527.589 0 32.4007 11653.4\n13.42 666.758 0 32.3077 11653.4\n13.43 788.321 0 32.2131 11653.4\n13.44 891.658 0 32.1339 11653.4\n13.45 976.645 0 32.0844 11653.4\n13.46 1043.61 0 32.0735 11653.4\n13.47 1093.3 0 32.1031 11653.4\n13.48 1126.77 0 32.1678 11653.4\n13.49 1145.38 0 32.2559 11653.4\n13.5 1150.69 0 32.3514 11653.4\n13.51 1144.4 0 32.4373 11653.4\n13.52 1128.31 0 32.4984 11653.4\n13.53 1104.23 0 32.524 11653.4\n13.54 1073.95 0 32.5097 11653.4\n13.55 1039.21 0 32.4579 11653.4\n13.56 1001.66 0 32.378 11653.4\n13.57 962.829 0 32.2841 11653.4\n13.58 924.15 0 32.1928 11653.4\n13.59 886.921 0 32.1207 11653.4\n13.6 852.323 0 32.0806 11653.4\n13.61 821.427 0 32.0799 11653.4\n13.62 795.199 0 32.1186 11653.4\n13.63 774.516 0 32.1896 11653.4\n13.64 760.175 0 32.28 11653.4\n13.65 752.895 0 32.3735 11653.4\n13.66 753.324 0 32.4534 11653.4\n13.67 762.037 0 32.5058 11653.4\n13.68 779.529 0 32.5213 11653.4\n13.69 806.203 0 32.4973 11653.4\n13.7 842.359 0 32.4381 11653.4\n13.71 888.167 0 32.3542 11653.4\n13.72 943.654 0 32.2605 11653.4\n13.73 1008.68 0 32.1737 11653.4\n13.74 1082.92 0 32.1094 11653.4\n13.75 1165.85 0 32.0792 11653.4\n13.76 1256.73 0 32.0887 11653.4\n13.77 1354.63 0 32.1359 11653.4\n13.78 1458.37 0 32.2123 11653.4\n13.79 1566.64 0 32.304 11653.4\n13.8 1677.91 0 32.3946 11653.4\n13.81 1790.57 0 32.4679 11653.4\n13.82 1902.89 0 32.511 11653.4\n13.83 2013.15 0 32.5164 11653.4\n13.84 2119.63 0 32.4832 11653.4\n13.85 2220.73 0 32.4173 11653.4\n13.86 2314.99 0 32.3303 11653.4\n13.87 2401.18 0 32.2377 11653.4\n13.88 2478.36 0 32.1562 11653.4\n13.89 2545.91 0 32.1003 11653.4\n13.9 2603.58 0 32.0802 11653.4\n13.91 2651.5 0 32.0994 11653.4\n13.92 2690.22 0 32.1545 11653.4\n13.93 2720.66 0 32.2354 11653.4\n13.94 2744.11 0 32.3274 11653.4\n13.95 2762.18 0 32.4141 11653.4\n13.96 2776.73 0 32.48 11653.4\n13.97 2789.79 0 32.5137 11653.4\n13.98 2803.47 0 32.5091 11653.4\n13.99 2819.88 0 32.4672 11653.4\n14 2840.99 0 32.3954 11653.4\n14.01 2868.57 0 32.3064 11653.4\n14.02 2904.03 0 32.216 11653.4\n14.03 2948.39 0 32.1405 11653.4\n14.04 3002.13 0 32.0935 11653.4\n14.05 3065.22 0 32.0834 11653.4\n14.06 3137.01 0 32.1121 11653.4\n14.07 3216.22 0 32.1743 11653.4\n14.08 3301 0 32.2587 11653.4\n14.09 3388.94 0 32.35 11653.4\n14.1 3477.13 0 32.432 11653.4\n14.11 3562.29 0 32.4901 11653.4\n14.12 3640.84 0 32.5141 11653.4\n14.13 3709.09 0 32.4998 11653.4\n14.14 3763.35 0 32.4499 11653.4\n14.15 3800.11 0 32.373 11653.4\n14.16 3816.2 0 32.283 11653.4\n14.17 3808.94 0 32.1957 11653.4\n14.18 3776.32 0 32.1269 11653.4\n14.19 3717.05 0 32.0891 11653.4\n14.2 3630.76 0 32.0889 11653.4\n14.21 3517.99 0 32.1265 11653.4\n14.22 3380.27 0 32.1949 11653.4\n14.23 3220.11 0 32.2818 11653.4\n14.24 3040.95 0 32.3715 11653.4\n14.25 2847.08 0 32.448 11653.4\n14.26 2643.53 0 32.4978 11653.4\n14.27 2435.91 0 32.5121 11653.4\n14.28 2230.21 0 32.4886 11653.4\n14.29 2032.6 0 32.4313 11653.4\n14.3 1849.22 0 32.3505 11653.4\n14.31 1685.9 0 32.2603 11653.4\n14.32 1547.98 0 32.1771 11653.4\n14.33 1440.04 0 32.1156 11653.4\n14.34 1365.72 0 32.0871 11653.4\n14.35 1327.53 0 32.0966 11653.4\n14.36 1326.72 0 32.1424 11653.4\n14.37 1363.18 0 32.2161 11653.4\n14.38 1435.39 0 32.3044 11653.4\n14.39 1540.42 0 32.3914 11653.4\n14.4 1674.01 0 32.4617 11653.4\n14.41 1830.63 0 32.5028 11653.4\n14.42 2003.71 0 32.5076 11653.4\n14.43 2185.8 0 32.4753 11653.4\n14.44 2368.83 0 32.4115 11653.4\n14.45 2544.37 0 32.3276 11653.4\n14.46 2703.98 0 32.2385 11653.4\n14.47 2839.46 0 32.1602 11653.4\n14.48 2943.19 0 32.1066 11653.4\n14.49 3008.41 0 32.0876 11653.4\n14.5 3029.48 0 32.1064 11653.4\n14.51 3002.15 0 32.1597 11653.4\n14.52 2923.7 0 32.2377 11653.4\n14.53 2793.1 0 32.3263 11653.4\n14.54 2611.07 0 32.4098 11653.4\n14.55 2380.12 0 32.4731 11653.4\n14.56 2104.43 0 32.5053 11653.4\n14.57 1789.8 0 32.5007 11653.4\n14.58 1443.42 0 32.4601 11653.4\n14.59 1073.65 0 32.3908 11653.4\n14.6 689.737 0 32.305 11653.4\n14.61 301.486 0 32.2179 11653.4\n14.62 -81.0806 0 32.1452 11653.4\n14.63 -448.081 0 32.1 11653.4\n14.64 -790.135 0 32.0904 11653.4\n14.65 -1098.71 0 32.1181 11653.4\n14.66 -1366.42 0 32.1781 11653.4\n14.67 -1587.34 0 32.2593 11653.4\n14.68 -1757.16 0 32.3473 11653.4\n14.69 -1873.42 0 32.4262 11653.4\n14.7 -1935.58 0 32.4822 11653.4\n14.71 -1945 0 32.5053 11653.4\n14.72 -1904.99 0 32.4915 11653.4\n14.73 -1820.58 0 32.4434 11653.4\n14.74 -1698.42 0 32.3694 11653.4\n14.75 -1546.47 0 32.2827 11653.4\n14.76 -1373.76 0 32.1988 11653.4\n14.77 -1190 0 32.1326 11653.4\n14.78 -1005.24 0 32.0962 11653.4\n14.79 -829.473 0 32.096 11653.4\n14.8 -672.29 0 32.1322 11653.4\n14.81 -542.482 0 32.198 11653.4\n14.82 -447.725 0 32.2815 11653.4\n14.83 -394.291 0 32.3677 11653.4\n14.84 -386.809 0 32.4413 11653.4\n14.85 -428.1 0 32.4891 11653.4\n14.86 -519.071 0 32.5029 11653.4\n14.87 -658.691 0 32.4803 11653.4\n14.88 -844.04 0 32.4252 11653.4\n14.89 -1070.43 0 32.3474 11653.4\n14.9 -1331.6 0 32.2608 11653.4\n14.91 -1619.97 0 32.1809 11653.4\n14.92 -1926.92 0 32.1219 11653.4\n14.93 -2243.17 0 32.0945 11653.4\n14.94 -2559.11 0 32.1038 11653.4\n14.95 -2865.2 0 32.1479 11653.4\n14.96 -3152.36 0 32.2188 11653.4\n14.97 -3412.26 0 32.3037 11653.4\n14.98 -3637.71 0 32.3873 11653.4\n14.99 -3822.91 0 32.4548 11653.4\n15 -3963.67 0 32.4943 11653.4\n15.01 -4057.53 0 32.4989 11653.4\n15.02 -4103.92 0 32.4677 11653.4\n15.03 -4104.09 0 32.4064 11653.4\n15.04 -4061.07 0 32.3258 11653.4\n15.05 -3979.58 0 32.2402 11653.4\n15.06 -3865.74 0 32.165 11653.4\n15.07 -3726.89 0 32.1137 11653.4\n15.08 -3571.24 0 32.0955 11653.4\n15.09 -3407.54 0 32.1138 11653.4\n15.1 -3244.73 0 32.1651 11653.4\n15.11 -3091.57 0 32.2402 11653.4\n15.12 -2956.27 0 32.3255 11653.4\n15.13 -2846.21 0 32.4057 11653.4\n15.14 -2767.58 0 32.4665 11653.4\n15.15 -2725.19 0 32.4974 11653.4\n15.16 -2722.26 0 32.4928 11653.4\n15.17 -2760.3 0 32.4537 11653.4\n15.18 -2839.08 0 32.3869 11653.4\n15.19 -2956.63 0 32.3044 11653.4\n15.2 -3109.35 0 32.2207 11653.4\n15.21 -3292.17 0 32.151 11653.4\n15.22 -3498.75 0 32.1077 11653.4\n15.23 -3721.79 0 32.0987 11653.4\n15.24 -3953.29 0 32.1256 11653.4\n15.25 -4184.9 0 32.1835 11653.4\n15.26 -4408.29 0 32.2617 11653.4\n15.27 -4615.45 0 32.3464 11653.4\n15.28 -4799.04 0 32.4223 11653.4\n15.29 -4952.68 0 32.4759 11653.4\n15.3 -5071.2 0 32.498 11653.4\n15.31 -5150.83 0 32.4846 11653.4\n15.32 -5189.34 0 32.4381 11653.4\n15.33 -5186.14 0 32.3668 11653.4\n15.34 -5142.25 0 32.2833 11653.4\n15.35 -5060.26 0 32.2025 11653.4\n15.36 -4944.19 0 32.1389 11653.4\n15.37 -4799.3 0 32.1041 11653.4\n15.38 -4631.89 0 32.1042 11653.4\n15.39 -4448.97 0 32.1392 11653.4\n15.4 -4258.01 0 32.2027 11653.4\n15.41 -4066.57 0 32.2833 11653.4\n15.42 -3882.05 0 32.3663 11653.4\n15.43 -3711.29 0 32.4371 11653.4\n15.44 -3560.39 0 32.4832 11653.4\n15.45 -3434.38 0 32.4963 11653.4\n15.46 -3337.07 0 32.4743 11653.4\n15.47 -3270.92 0 32.4211 11653.4\n15.48 -3236.9 0 32.3462 11653.4\n15.49 -3234.55 0 32.2627 11653.4\n15.5 -3261.97 0 32.1856 11653.4\n15.51 -3315.93 0 32.1288 11653.4\n15.52 -3392.08 0 32.1026 11653.4\n15.53 -3485.11 0 32.1116 11653.4\n15.54 -3589.04 0 32.1541 11653.4\n15.55 -3697.45 0 32.2225 11653.4\n15.56 -3803.85 0 32.3043 11653.4\n15.57 -3901.88 0 32.385 11653.4\n15.58 -3985.68 0 32.45 11653.4\n15.59 -4050.07 0 32.4881 11653.4\n15.6 -4090.86 0 32.4924 11653.4\n15.61 -4104.95 0 32.4624 11653.4\n15.62 -4090.52 0 32.4033 11653.4\n15.63 -4047.06 0 32.3255 11653.4\n15.64 -3975.41 0 32.243 11653.4\n15.65 -3877.69 0 32.1705 11653.4\n15.66 -3757.18 0 32.1211 11653.4\n15.67 -3618.19 0 32.1035 11653.4\n15.68 -3465.84 0 32.1211 11653.4\n15.69 -3305.81 0 32.1705 11653.4\n15.7 -3144.07 0 32.2428 11653.4\n15.71 -2986.62 0 32.3249 11653.4\n15.72 -2839.18 0 32.4021 11653.4\n15.73 -2706.95 0 32.4608 11653.4\n15.74 -2594.32 0 32.4905 11653.4\n15.75 -2504.74 0 32.4862 11653.4\n15.76 -2440.45 0 32.4486 11653.4\n15.77 -2402.48 0 32.3843 11653.4\n15.78 -2390.51 0 32.3049 11653.4\n15.79 -2402.9 0 32.2244 11653.4\n15.8 -2436.78 0 32.1573 11653.4\n15.81 -2488.15 0 32.1156 11653.4\n15.82 -2552.06 0 32.1069 11653.4\n15.83 -2622.8 0 32.1327 11653.4\n15.84 -2694.22 0 32.1883 11653.4\n15.85 -2759.93 0 32.2635 11653.4\n15.86 -2813.62 0 32.3449 11653.4\n15.87 -2849.37 0 32.4179 11653.4\n15.88 -2861.88 0 32.4695 11653.4\n15.89 -2846.73 0 32.4906 11653.4\n15.9 -2800.58 0 32.4777 11653.4\n15.91 -2721.36 0 32.433 11653.4\n15.92 -2608.34 0 32.3645 11653.4\n15.93 -2462.19 0 32.2843 11653.4\n15.94 -2284.97 0 32.2067 11653.4\n15.95 -2080.07 0 32.1457 11653.4\n15.96 -1852.03 0 32.1123 11653.4\n15.97 -1606.41 0 32.1124 11653.4\n15.98 -1349.53 0 32.1461 11653.4\n15.99 -1088.2 0 32.2072 11653.4\n16 -829.481 0 32.2845 11653.4\n16.01 -580.31 0 32.3643 11653.4\n16.02 -347.268 0 32.4322 11653.4\n16.03 -136.273 0 32.4762 11653.4\n16.04 47.667 0 32.4887 11653.4\n16.05 200.671 0 32.4674 11653.4\n16.06 320.146 0 32.4162 11653.4\n16.07 404.904 0 32.3441 11653.4\n16.08 455.205 0 32.2639 11653.4\n16.09 472.747 0 32.19 11653.4\n16.1 460.592 0 32.1357 11653.4\n16.11 423.026 0 32.1108 11653.4\n16.12 365.378 0 32.1197 11653.4\n16.13 293.778 0 32.1609 11653.4\n16.14 214.892 0 32.2267 11653.4\n16.15 135.631 0 32.3053 11653.4\n16.16 62.8403 0 32.3826 11653.4\n16.17 3.00694 0 32.4449 11653.4\n16.18 -38.0321 0 32.4811 11653.4\n16.19 -55.3447 0 32.4848 11653.4\n16.2 -45.1216 0 32.4555 11653.4\n16.21 -4.84439 0 32.3983 11653.4\n16.22 66.6027 0 32.3234 11653.4\n16.23 168.884 0 32.2442 11653.4\n16.24 300.226 0 32.1747 11653.4\n16.25 457.498 0 32.1275 11653.4\n16.26 636.351 0 32.1112 11653.4\n16.27 831.409 0 32.1287 11653.4\n16.28 1036.51 0 32.1767 11653.4\n16.29 1245 0 32.2465 11653.4\n16.3 1449.98 0 32.3257 11653.4\n16.31 1644.7 0 32.3998 11653.4\n16.32 1822.78 0 32.4559 11653.4\n16.33 1978.56 0 32.484 11653.4\n16.34 2107.35 0 32.4792 11653.4\n16.35 2205.64 0 32.4423 11653.4\n16.36 2271.25 0 32.38 11653.4\n16.37 2303.49 0 32.3031 11653.4\n16.38 2303.17 0 32.2255 11653.4\n16.39 2272.6 0 32.161 11653.4\n16.4 2215.48 0 32.1213 11653.4\n16.41 2136.77 0 32.1135 11653.4\n16.42 2042.47 0 32.139 11653.4\n16.43 1939.4 0 32.1931 11653.4\n16.44 1834.86 0 32.2661 11653.4\n16.45 1736.34 0 32.3448 11653.4\n16.46 1651.21 0 32.4152 11653.4\n16.47 1586.37 0 32.4647 11653.4\n16.48 1547.94 0 32.4847 11653.4\n16.49 1541 0 32.4717 11653.4\n16.5 1569.36 0 32.4279 11653.4\n16.51 1635.36 0 32.3612 11653.4\n16.52 1739.75 0 32.2834 11653.4\n16.53 1881.67 0 32.2084 11653.4\n16.54 2058.64 0 32.1495 11653.4\n16.55 2266.62 0 32.1175 11653.4\n16.56 2500.24 0 32.1181 11653.4\n16.57 2752.92 0 32.1511 11653.4\n16.58 3017.19 0 32.2106 11653.4\n16.59 3285 0 32.2857 11653.4\n16.6 3548.01 0 32.363 11653.4\n16.61 3797.95 0 32.4287 11653.4\n16.62 4026.97 0 32.4711 11653.4\n16.63 4227.98 0 32.4829 11653.4\n16.64 4394.91 0 32.462 11653.4\n16.65 4522.99 0 32.4121 11653.4\n16.66 4608.95 0 32.342 11653.4\n16.67 4651.17 0 32.2642 11653.4\n16.68 4649.71 0 32.1926 11653.4\n16.69 4606.35 0 32.14 11653.4\n16.7 4524.51 0 32.116 11653.4\n16.71 4409.1 0 32.1248 11653.4\n16.72 4266.32 0 32.1649 11653.4\n16.73 4103.42 0 32.2289 11653.4\n16.74 3928.35 0 32.3052 11653.4\n16.75 3749.51 0 32.3802 11653.4\n16.76 3575.32 0 32.4405 11653.4\n16.77 3413.93 0 32.4755 11653.4\n16.78 3272.86 0 32.4791 11653.4\n16.79 3158.69 0 32.4505 11653.4\n16.8 3076.8 0 32.395 11653.4\n16.81 3031.18 0 32.3223 11653.4\n16.82 3024.21 0 32.2454 11653.4\n16.83 3056.66 0 32.178 11653.4\n16.84 3127.59 0 32.1323 11653.4\n16.85 3234.49 0 32.1165 11653.4\n16.86 3373.33 0 32.1334 11653.4\n16.87 3538.79 0 32.1799 11653.4\n16.88 3724.52 0 32.2476 11653.4\n16.89 3923.38 0 32.3243 11653.4\n16.9 4127.8 0 32.3962 11653.4\n16.91 4330.1 0 32.4506 11653.4\n16.92 4522.83 0 32.4779 11653.4\n16.93 4699.11 0 32.4733 11653.4\n16.94 4852.94 0 32.4376 11653.4\n16.95 4979.41 0 32.3772 11653.4\n16.96 5074.99 0 32.3027 11653.4\n16.97 5137.62 0 32.2275 11653.4\n16.98 5166.82 0 32.165 11653.4\n16.99 5163.7 0 32.1265 11653.4\n17 5130.92 0 32.1189 11653.4\n17.01 5072.51 0 32.1435 11653.4\n17.02 4993.77 0 32.1959 11653.4\n17.03 4900.94 0 32.2666 11653.4\n17.04 4800.96 0 32.3428 11653.4\n17.05 4701.17 0 32.4109 11653.4\n17.06 4608.91 0 32.4589 11653.4\n17.07 4531.26 0 32.4783 11653.4\n17.08 4474.64 0 32.4657 11653.4\n17.09 4444.59 0 32.4234 11653.4\n17.1 4445.46 0 32.3589 11653.4\n17.11 4480.21 0 32.2836 11653.4\n17.12 4550.3 0 32.2109 11653.4\n17.13 4655.56 0 32.1539 11653.4\n17.14 4794.25 0 32.1229 11653.4\n17.15 4963.06 0 32.1234 11653.4\n17.16 5157.31 0 32.1553 11653.4\n17.17 5371.1 0 32.2128 11653.4\n17.18 5597.56 0 32.2855 11653.4\n17.19 5829.21 0 32.3604 11653.4\n17.2 6058.21 0 32.424 11653.4\n17.21 6276.74 0 32.4652 11653.4\n17.22 6477.37 0 32.4767 11653.4\n17.23 6653.33 0 32.4564 11653.4\n17.24 6798.86 0 32.4081 11653.4\n17.25 6909.46 0 32.3403 11653.4\n17.26 6982.07 0 32.265 11653.4\n17.27 7015.24 0 32.1957 11653.4\n17.28 7009.22 0 32.1448 11653.4\n17.29 6965.88 0 32.1215 11653.4\n17.3 6888.73 0 32.1299 11653.4\n17.31 6782.71 0 32.1686 11653.4\n17.32 6654.01 0 32.2305 11653.4\n17.33 6509.79 0 32.3044 11653.4\n17.34 6357.86 0 32.3771 11653.4\n17.35 6206.37 0 32.4355 11653.4\n17.36 6063.4 0 32.4695 11653.4\n17.37 5936.64 0 32.4731 11653.4\n17.38 5833.03 0 32.4455 11653.4\n17.39 5758.45 0 32.3918 11653.4\n17.4 5717.45 0 32.3215 11653.4\n17.41 5713.02 0 32.2471 11653.4\n17.42 5746.44 0 32.1818 11653.4\n17.43 5817.25 0 32.1375 11653.4\n17.44 5923.2 0 32.1221 11653.4\n17.45 6060.34 0 32.1384 11653.4\n17.46 6223.18 0 32.1834 11653.4\n17.47 6404.92 0 32.2489 11653.4\n17.48 6597.72 0 32.3231 11653.4\n17.49 6793 0 32.3928 11653.4\n17.5 6981.85 0 32.4456 11653.4\n17.51 7155.4 0 32.4721 11653.4\n17.52 7305.13 0 32.4678 11653.4\n17.53 7423.35 0 32.4333 11653.4\n17.54 7503.45 0 32.3749 11653.4\n17.55 7540.2 0 32.3029 11653.4\n17.56 7530.04 0 32.2301 11653.4\n17.57 7471.15 0 32.1696 11653.4\n17.58 7363.65 0 32.1322 11653.4\n17.59 7209.5 0 32.1246 11653.4\n17.6 7012.5 0 32.1483 11653.4\n17.61 6778.14 0 32.1989 11653.4\n17.62 6513.31 0 32.2672 11653.4\n17.63 6226.12 0 32.341 11653.4\n17.64 5925.47 0 32.407 11653.4\n17.65 5620.74 0 32.4536 11653.4\n17.66 5321.38 0 32.4726 11653.4\n17.67 5036.49 0 32.4606 11653.4\n17.68 4774.49 0 32.4199 11653.4\n17.69 4542.73 0 32.3576 11653.4\n17.7 4347.18 0 32.2848 11653.4\n17.71 4192.2 0 32.2145 11653.4\n17.72 4080.32 0 32.1593 11653.4\n17.73 4012.21 0 32.1291 11653.4\n17.74 3986.57 0 32.1294 11653.4\n17.75 4000.26 0 32.1601 11653.4\n17.76 4048.38 0 32.2155 11653.4\n17.77 4124.56 0 32.2857 11653.4\n17.78 4221.17 0 32.358 11653.4\n17.79 4329.7 0 32.4195 11653.4\n17.8 4441.1 0 32.4594 11653.4\n17.81 4546.23 0 32.4706 11653.4\n17.82 4636.2 0 32.4513 11653.4\n17.83 4702.82 0 32.4048 11653.4\n17.84 4738.91 0 32.3394 11653.4\n17.85 4738.67 0 32.2667 11653.4\n17.86 4697.91 0 32.1998 11653.4\n17.87 4614.25 0 32.1506 11653.4\n17.88 4487.23 0 32.128 11653.4\n17.89 4318.34 0 32.1361 11653.4\n17.9 4110.96 0 32.1734 11653.4\n17.91 3870.24 0 32.2331 11653.4\n17.92 3602.85 0 32.3043 11653.4\n17.93 3316.7 0 32.3744 11653.4\n17.94 3020.63 0 32.4309 11653.4\n17.95 2723.97 0 32.4637 11653.4\n17.96 2436.18 0 32.4671 11653.4\n17.97 2166.41 0 32.4406 11653.4\n17.98 1923.05 0 32.3888 11653.4\n17.99 1713.45 0 32.321 11653.4\n18 1543.49 0 32.2492 11653.4\n18.01 1417.33 0 32.1863 11653.4\n18.02 1337.24 0 32.1436 11653.4\n18.03 1303.42 0 32.1288 11653.4\n18.04 1314.04 0 32.1445 11653.4\n18.05 1365.2 0 32.188 11653.4\n18.06 1451.16 0 32.2512 11653.4\n18.07 1564.51 0 32.3229 11653.4\n18.08 1696.51 0 32.3901 11653.4\n18.09 1837.41 0 32.4409 11653.4\n18.1 1976.88 0 32.4665 11653.4\n18.11 2104.46 0 32.4622 11653.4\n18.12 2209.97 0 32.4288 11653.4\n18.13 2284.02 0 32.3724 11653.4\n18.14 2318.33 0 32.3028 11653.4\n18.15 2306.2 0 32.2326 11653.4\n18.16 2242.75 0 32.1742 11653.4\n18.17 2125.18 0 32.1382 11653.4\n18.18 1952.94 0 32.1311 11653.4\n18.19 1727.77 0 32.1542 11653.4\n18.2 1453.66 0 32.2032 11653.4\n18.21 1136.76 0 32.2692 11653.4\n18.22 785.087 0 32.3405 11653.4\n18.23 408.306 0 32.4042 11653.4\n18.24 17.3 0 32.4491 11653.4\n18.25 -376.231 0 32.4673 11653.4\n18.26 -760.244 0 32.4555 11653.4\n18.27 -1122.84 0 32.4159 11653.4\n18.28 -1452.72 0 32.3556 11653.4\n18.29 -1739.72 0 32.2851 11653.4\n18.3 -1975.13 0 32.2172 11653.4\n18.31 -2152.17 0 32.1639 11653.4\n18.32 -2266.2 0 32.1349 11653.4\n18.33 -2314.98 0 32.1354 11653.4\n18.34 -2298.75 0 32.1652 11653.4\n18.35 -2220.3 0 32.219 11653.4\n18.36 -2084.82 0 32.287 11653.4\n18.37 -1899.76 0 32.3571 11653.4\n18.38 -1674.56 0 32.4166 11653.4\n18.39 -1420.26 0 32.4552 11653.4\n18.4 -1149.12 0 32.4659 11653.4\n18.41 -874.14 0 32.447 11653.4\n18.42 -608.556 0 32.4017 11653.4\n18.43 -365.325 0 32.3382 11653.4\n18.44 -156.631 0 32.2677 11653.4\n18.45 6.5947 0 32.2027 11653.4\n18.46 115.092 0 32.155 11653.4\n18.47 161.637 0 32.1331 11653.4\n18.48 141.321 0 32.141 11653.4\n18.49 51.7431 0 32.1772 11653.4\n18.5 -106.9 0 32.2351 11653.4\n18.51 -331.821 0 32.3043 11653.4\n18.52 -617.751 0 32.3723 11653.4\n18.53 -957.147 0 32.4272 11653.4\n18.54 -1340.49 0 32.4592 11653.4\n18.55 -1756.63 0 32.4626 11653.4\n18.56 -2193.27 0 32.437 11653.4\n18.57 -2637.39 0 32.3869 11653.4\n18.58 -3075.76 0 32.3212 11653.4\n18.59 -3495.46 0 32.2515 11653.4\n18.6 -3884.37 0 32.1903 11653.4\n18.61 -4231.6 0 32.1487 11653.4\n18.62 -4527.93 0 32.134 11653.4\n18.63 -4766.13 0 32.149 11653.4\n18.64 -4941.21 0 32.1908 11653.4\n18.65 -5050.61 0 32.2518 11653.4\n18.66 -5094.26 0 32.3211 11653.4\n18.67 -5074.55 0 32.3862 11653.4\n18.68 -4996.22 0 32.4357 11653.4\n18.69 -4866.15 0 32.4606 11653.4\n18.7 -4693.06 0 32.4567 11653.4\n18.71 -4487.17 0 32.4248 11653.4\n18.72 -4259.77 0 32.3704 11653.4\n18.73 -4022.79 0 32.3033 11653.4\n18.74 -3788.29 0 32.2355 11653.4\n18.75 -3568.06 0 32.1789 11653.4\n18.76 -3373.12 0 32.144 11653.4\n18.77 -3213.32 0 32.1369 11653.4\n18.78 -3097.01 0 32.1588 11653.4\n18.79 -3030.69 0 32.2058 11653.4\n18.8 -3018.83 0 32.2694 11653.4\n18.81 -3063.72 0 32.3381 11653.4\n18.82 -3165.45 0 32.3996 11653.4\n18.83 -3321.89 0 32.443 11653.4\n18.84 -3528.87 0 32.4607 11653.4\n18.85 -3780.35 0 32.4496 11653.4\n18.86 -4068.7 0 32.4116 11653.4\n18.87 -4385.04 0 32.3535 11653.4\n18.88 -4719.58 0 32.2857 11653.4\n18.89 -5062.05 0 32.2202 11653.4\n18.9 -5402.09 0 32.1688 11653.4\n18.91 -5729.65 0 32.1408 11653.4\n18.92 -6035.4 0 32.1412 11653.4\n18.93 -6311.02 0 32.1698 11653.4\n18.94 -6549.56 0 32.2215 11653.4\n18.95 -6745.62 0 32.2869 11653.4\n18.96 -6895.57 0 32.3543 11653.4\n18.97 -6997.59 0 32.4115 11653.4\n18.98 -7051.75 0 32.4486 11653.4\n18.99 -7059.89 0 32.459 11653.4\n19 -7025.57 0 32.4408 11653.4\n19.01 -6953.81 0 32.3973 11653.4\n19.02 -6850.9 0 32.3362 11653.4\n19.03 -6724.11 0 32.2685 11653.4\n19.04 -6581.35 0 32.2062 11653.4\n19.05 -6430.86 0 32.1605 11653.4\n19.06 -6280.88 0 32.1397 11653.4\n19.07 -6139.3 0 32.1474 11653.4\n19.08 -6013.41 0 32.1823 11653.4\n19.09 -5909.57 0 32.238 11653.4\n19.1 -5833.05 0 32.3045 11653.4\n19.11 -5787.81 0 32.3698 11653.4\n19.12 -5776.44 0 32.4223 11653.4\n19.13 -5800.06 0 32.4527 11653.4\n19.14 -5858.34 0 32.4556 11653.4\n19.15 -5949.59 0 32.4306 11653.4\n19.16 -6070.85 0 32.3822 11653.4\n19.17 -6218.05 0 32.3188 11653.4\n19.18 -6386.23 0 32.2518 11653.4\n19.19 -6569.75 0 32.1932 11653.4\n19.2 -6762.56 0 32.1536 11653.4\n19.21 -6958.4 0 32.14 11653.4\n19.22 -7151.1 0 32.155 11653.4\n19.23 -7334.79 0 32.1957 11653.4\n19.24 -7504.11 0 32.2548 11653.4\n19.25 -7654.38 0 32.3217 11653.4\n19.26 -7781.76 0 32.3843 11653.4\n19.27 -7883.34 0 32.4316 11653.4\n19.28 -7957.17 0 32.4551 11653.4\n19.29 -8002.34 0 32.4508 11653.4\n19.3 -8018.88 0 32.4194 11653.4\n19.31 -8007.73 0 32.3666 11653.4\n19.32 -7970.65 0 32.3016 11653.4\n19.33 -7910.05 0 32.2361 11653.4\n19.34 -7828.9 0 32.1818 11653.4\n19.35 -7730.54 0 32.1485 11653.4\n19.36 -7618.5 0 32.1423 11653.4\n19.37 -7496.39 0 32.1641 11653.4\n19.38 -7367.73 0 32.21 11653.4\n19.39 -7235.81 0 32.2718 11653.4\n19.4 -7103.58 0 32.3383 11653.4\n19.41 -6973.61 0 32.3976 11653.4\n19.42 -6847.96 0 32.4392 11653.4\n19.43 -6728.22 0 32.4557 11653.4\n19.44 -6615.48 0 32.4444 11653.4\n19.45 -6510.36 0 32.407 11653.4\n19.46 -6413.05 0 32.3505 11653.4\n19.47 -6323.38 0 32.2846 11653.4\n19.48 -6240.9 0 32.2213 11653.4\n19.49 -6164.97 0 32.1719 11653.4\n19.5 -6094.82 0 32.1452 11653.4\n19.51 -6029.64 0 32.1461 11653.4\n19.52 -5968.68 0 32.1745 11653.4\n19.53 -5911.26 0 32.225 11653.4\n19.54 -5856.84 0 32.2887 11653.4\n19.55 -5805.05 0 32.3541 11653.4\n19.56 -5755.67 0 32.4095 11653.4\n19.57 -5708.63 0 32.4451 11653.4\n19.58 -5663.99 0 32.4547 11653.4\n19.59 -5621.85 0 32.4365 11653.4\n19.6 -5582.34 0 32.3939 11653.4\n19.61 -5545.55 0 32.3343 11653.4\n19.62 -5511.44 0 32.2684 11653.4\n19.63 -5479.79 0 32.2079 11653.4\n19.64 -5450.16 0 32.1637 11653.4\n19.65 -5421.84 0 32.1438 11653.4\n19.66 -5393.8 0 32.1517 11653.4\n19.67 -5364.75 0 32.186 11653.4\n19.68 -5333.07 0 32.2404 11653.4\n19.69 -5296.92 0 32.3052 11653.4\n19.7 -5254.27 0 32.3687 11653.4\n19.71 -5202.97 0 32.4196 11653.4\n19.72 -5140.85 0 32.4489 11653.4\n19.73 -5065.84 0 32.4515 11653.4\n19.74 -4976.03 0 32.427 11653.4\n19.75 -4869.85 0 32.3796 11653.4\n19.76 -4746.15 0 32.3179 11653.4\n19.77 -4604.26 0 32.2528 11653.4\n19.78 -4444.13 0 32.1959 11653.4\n19.79 -4266.32 0 32.1575 11653.4\n19.8 -4072.09 0 32.1446 11653.4\n19.81 -3863.38 0 32.1593 11653.4\n19.82 -3642.76 0 32.1991 11653.4\n19.83 -3413.38 0 32.2566 11653.4\n19.84 -3178.89 0 32.3216 11653.4\n19.85 -2943.31 0 32.3824 11653.4\n19.86 -2710.89 0 32.4282 11653.4\n19.87 -2485.95 0 32.4509 11653.4\n19.88 -2272.7 0 32.4465 11653.4\n19.89 -2075.1 0 32.4158 11653.4\n19.9 -1896.62 0 32.3643 11653.4\n19.91 -1740.17 0 32.3011 11653.4\n19.92 -1607.88 0 32.2375 11653.4\n19.93 -1501.07 0 32.1849 11653.4\n19.94 -1420.09 0 32.1527 11653.4\n19.95 -1364.33 0 32.1469 11653.4\n19.96 -1332.23 0 32.1683 11653.4\n19.97 -1321.27 0 32.2131 11653.4\n19.98 -1328.11 0 32.2732 11653.4\n19.99 -1348.67 0 32.3378 11653.4\n##### Results\nextraction_type='extract'\n### ModelCluster\npeak_funcs=[0]\nModelEvaluator=AIC\nslice=slice(None, 43, None)\n# BaselineObject\nowner=0\npars=[]\nfree=[]\nremovable=False\nstatic_owner=False\n\n## ModelPeaks\n# ModelPeak\nowner=1\npars=[1.4409645574666863, -1.2021756542216779, 35834.779473125469]\nfree=[True, True, True]\nremovable=True\nstatic_owner=False\n\n# ModelPeak\nowner=1\npars=[2.438834586729778, -0.96289415777140697, 76731.43020027288]\nfree=[True, True, True]\nremovable=True\nstatic_owner=False\n\n# ModelPeak\nowner=1\npars=[2.8449631419404557, -1.377022811246666, 20948.656697077673]\nfree=[True, True, True]\nremovable=True\nstatic_owner=False\n\n# ModelPeak\nowner=1\npars=[3.6144870375166058, -0.96713516256064158, 74286.823948562524]\nfree=[True, True, True]\nremovable=True\nstatic_owner=False\n\n# ModelPeak\nowner=1\npars=[4.1107321734767162, -0.98410710936823842, 56269.955304768802]\nfree=[True, True, True]\nremovable=True\nstatic_owner=False\n\n# ModelPeak\nowner=1\npars=[4.5494140399501193, -0.9756431127837496, 81698.18210463904]\nfree=[True, True, True]\nremovable=True\nstatic_owner=False\n\n# ModelPeak\nowner=1\npars=[4.8398410449548992, -1.4491665751304479, 21235.583150621042]\nfree=[True, True, True]\nremovable=True\nstatic_owner=False\n\n# ModelPeak\nowner=1\npars=[5.4143786805580305, -1.1127424167906164, 63603.398981811821]\nfree=[True, True, True]\nremovable=True\nstatic_owner=False\n\n# ModelPeak\nowner=1\npars=[5.9241758314319366, 1.5695897461410588, 195215.74804049844]\nfree=[True, True, True]\nremovable=True\nstatic_owner=False\n\n# ModelPeak\nowner=1\npars=[6.7383992196340667, 0.05697362691040269, 168818.12286746191]\nfree=[True, True, True]\nremovable=True\nstatic_owner=False\n\n### start data\n#L r y dy\n1 -19502.9 11653.4\n1.14749 -22788.9 11653.4\n1.29499 1852.19 11653.4\n1.44248 116074 11653.4\n1.58997 -10291.9 11653.4\n1.73746 -27861.6 11653.4\n1.88496 -18215.1 11653.4\n2.03245 -28714 11653.4\n2.17994 -26150.2 11653.4\n2.32743 34592.3 11653.4\n2.47493 94708.1 11653.4\n2.62242 -34046.8 11653.4\n2.76991 -6095.59 11653.4\n2.9174 -9022.01 11653.4\n3.0649 -47692.9 11653.4\n3.21239 -39823.5 11653.4\n3.35988 -45615.1 11653.4\n3.50737 13411.8 11653.4\n3.65487 42196.6 11653.4\n3.80236 -28611.3 11653.4\n3.94985 -21093.7 11653.4\n4.09735 22420.5 11653.4\n4.24484 -12021.5 11653.4\n4.39233 -17934.3 11653.4\n4.53982 45713.7 11653.4\n4.68732 -9106.12 11653.4\n4.83481 459.793 11653.4\n4.9823 -30024.4 11653.4\n5.12979 -6029.52 11653.4\n5.27729 -3788.41 11653.4\n5.42478 38601.6 11653.4\n5.57227 5401.92 11653.4\n5.71976 12241.1 11653.4\n5.86726 6715.96 11653.4\n6.01475 11253.1 11653.4\n6.16224 26161.1 11653.4\n6.30973 -15451.2 11653.4\n6.45723 -45.4651 11653.4\n6.60472 29243.8 11653.4\n6.75221 20789.5 11653.4\n6.8997 3686.4 11653.4\n7.0472 6321.19 11653.4\n7.19469 -14234.2 11653.4\n\n"
p1340
a.