(lp1
(lp2
(lp3
cnumpy.core.multiarray
scalar
p4
(cnumpy
dtype
p5
(S'f8'
I0
I1
tRp6
(I3
S'<'
NNNI-1
I-1
I0
tbS'\xa6W\x13\x9a\x85\x86\xca?'
tRp7
accopy_reg
_reconstructor
p8
(cdiffpy.srmise.peaks.base
Peaks
p9
c__builtin__
list
p10
(lp11
g8
(cdiffpy.srmise.peaks.base
Peak
p12
c__builtin__
object
p13
NtRp14
(dp15
S'_owner'
p16
g8
(cdiffpy.srmise.peaks.terminationripples
TerminationRipples
p17
g13
NtRp18
(dp19
S'supersample'
p20
F5
sS'metadict'
p21
(dp22
g20
(F5
c__builtin__
repr
p23
tp24
sS'qmax'
p25
(F30
g23
tp26
sS'extension'
p27
(F4
g23
tp28
ssg27
F4
sS'npars'
p29
I3
sg25
F30
sS'base'
p30
g8
(cdiffpy.srmise.peaks.gaussianoverr
GaussianOverR
p31
g13
NtRp32
(dp33
g21
(dp34
S'maxwidth'
p35
(F0.69999999999999996
g23
tp36
ssg35
F0.69999999999999996
sg29
I3
sS'sigma2fwhm'
p37
g4
(g6
S'C\xfcJ\xe4\xab\xd6\x02@'
tRp38
sS'c3'
p39
g4
(g6
S'\x1d\x0b\xc2\x91\x0e\x08\xf1?'
tRp40
sg30
NsS'parformats'
p41
(lp42
S'internal'
p43
aS'pwa'
p44
aS'mu_sigma_area'
p45
asS'c2'
p46
g4
(g6
S'~\x85%\xe3\x17\x9f\xb6?'
tRp47
sS'parameterdict'
p48
(dp49
S'position'
p50
I0
sS'area'
p51
I2
sS'width'
p52
I1
ssS'default_formats'
p53
(dp54
S'default_output'
p55
g44
sS'default_input'
p56
g43
ssS'c1'
p57
g4
(g6
S'J\xf1$s<\xdc\xe0?'
tRp58
sS'c4'
p59
F2.2439947525641379
sbsg41
g42
sg48
g49
sg53
g54
sbsS'pars'
p60
cnumpy.core.multiarray
_reconstruct
p61
(cnumpy
ndarray
p62
(I0
tS'b'
tRp63
(I1
(I3
tg6
I00
S'\xdb\xdd\x99\x12Lv&@C\xfa\x84L\t\xeb\xe6\xbf\x19Z\xeeNR@3@'
tbsS'removable'
p64
I01
sS'free'
p65
g61
(g62
(I0
tS'b'
tRp66
(I1
(I3
tg5
(S'b1'
I0
I1
tRp67
(I3
S'|'
NNNI-1
I-1
I0
tbI00
S'\x01\x01\x01'
tbsS'static_owner'
p68
I00
sbag8
(g12
g13
NtRp69
(dp70
g16
g18
sg60
g61
(g62
(I0
tS'b'
tRp71
(I1
(I3
tg6
I00
S'\x8b\x9e\xf2\xa0\x13\xe1&@%\xc2.\xa8\xec!\xf9?k\xe7\xca\x0f.\x13;@'
tbsg64
I01
sg65
g61
(g62
(I0
tS'b'
tRp72
(I1
(I3
tg67
I00
S'\x01\x01\x01'
tbsg68
I00
sbag8
(g12
g13
NtRp73
(dp74
g16
g18
sg60
g61
(g62
(I0
tS'b'
tRp75
(I1
(I3
tg6
I00
S"\xf9\xec\x1b\xc4\xc9\xfb'@\x00,p\x11T\xc3\xde\xbf\x9b2\xa8\xbaq\x92A@"
tbsg64
I01
sg65
g61
(g62
(I0
tS'b'
tRp76
(I1
(I3
tg67
I00
S'\x01\x01\x01'
tbsg68
I00
sbag8
(g12
g13
NtRp77
(dp78
g16
g18
sg60
g61
(g62
(I0
tS'b'
tRp79
(I1
(I3
tg6
I00
S'"\xc2\xa1\x97\x18\x98(@\xe1\x8f\x01>\x88=\xeb\xbfIh\x94\xf6\xbc\x83&@'
tbsg64
I01
sg65
g61
(g62
(I0
tS'b'
tRp80
(I1
(I3
tg67
I00
S'\x01\x01\x01'
tbsg68
I00
sbag8
(g12
g13
NtRp81
(dp82
g16
g18
sg60
g61
(g62
(I0
tS'b'
tRp83
(I1
(I3
tg6
I00
S'\x82\xeb-S1K)@\xc2,\x03\xab\x14\x03\xd2\xbf\x16P_hq\x87M@'
tbsg64
I01
sg65
g61
(g62
(I0
tS'b'
tRp84
(I1
(I3
tg67
I00
S'\x01\x01\x01'
tbsg68
I00
sbag8
(g12
g13
NtRp85
(dp86
g16
g18
sg60
g61
(g62
(I0
tS'b'
tRp87
(I1
(I3
tg6
I00
S'J\x15\xd5\xb5\xba\x9a*@ha\x06~\x0f\xb6\xd2?]\xee\xf9\xf3w\x02L@'
tbsg64
I01
sg65
g61
(g62
(I0
tS'b'
tRp88
(I1
(I3
tg67
I00
S'\x01\x01\x01'
tbsg68
I00
sbag8
(g12
g13
NtRp89
(dp90
g16
g18
sg60
g61
(g62
(I0
tS'b'
tRp91
(I1
(I3
tg6
I00
S'\x93P\xb5\xd6\xaf\xda+@\xd0\x1f}\xa5\xb0\xd1\xc0\xbf\x18\x8b1h\x96vG@'
tbsg64
I01
sg65
g61
(g62
(I0
tS'b'
tRp92
(I1
(I3
tg67
I00
S'\x01\x01\x01'
tbsg68
I00
sbag8
(g12
g13
NtRp93
(dp94
g16
g18
sg60
g61
(g62
(I0
tS'b'
tRp95
(I1
(I3
tg6
I00
S'\xe8\xadpDj\x07-@\x17\x1e\x06\xc4j7\xda\xbf\xc5\xfbs\xe5\x02OO@'
tbsg64
I01
sg65
g61
(g62
(I0
tS'b'
tRp96
(I1
(I3
tg67
I00
S'\x01\x01\x01'
tbsg68
I00
sbag8
(g12
g13
NtRp97
(dp98
g16
g18
sg60
g61
(g62
(I0
tS'b'
tRp99
(I1
(I3
tg6
I00
S'\xba@\xd3]\x97l.@\x16 \xda\xbfN\xcc\xe7?\xc2\xa2\xc0\nU\x86b@'
tbsg64
I01
sg65
g61
(g62
(I0
tS'b'
tRp100
(I1
(I3
tg67
I00
S'\x01\x01\x01'
tbsg68
I00
sbatRp101
a(dp102
g60
g61
(g62
(I0
tS'b'
tRp103
(I1
(I2
tg6
I00
S"\x89>\xd8\xf8XU\xe0\xbf\xec\x01'\xa1\xea7\x81?"
tbsg64
I00
sg65
g61
(g62
(I0
tS'b'
tRp104
(I1
(I2
tg67
I00
S'\x01\x01'
tbsg68
I00
sag4
(g6
S'\x00\xec{\xf3\xe9\xce\xba?'
tRp105
aa(lp106
g4
(g6
S'\x03zH\xf6\x92-\xcd?'
tRp107
ag8
(g9
g10
(lp108
g8
(g12
g13
NtRp109
(dp110
g16
g8
(g17
g13
NtRp111
(dp112
g20
F5
sg21
(dp113
g20
(F5
g23
tp114
sg25
(F30
g23
tp115
sg27
(F4
g23
tp116
ssg27
F4
sg29
I3
sg25
F30
sg30
g32
sg41
g42
sg48
g49
sg53
g54
sbsg60
g61
(g62
(I0
tS'b'
tRp117
(I1
(I3
tg6
I00
S'\x03\x8a\xb8\xd8\x7f\x81&@\x05vH\x92\x0eW\xde\xbf\x01Z\xf9\xb8\xe5\x88A@'
tbsg64
I01
sg65
g61
(g62
(I0
tS'b'
tRp118
(I1
(I3
tg67
I00
S'\x01\x01\x01'
tbsg68
I00
sbag8
(g12
g13
NtRp119
(dp120
g16
g111
sg60
g61
(g62
(I0
tS'b'
tRp121
(I1
(I3
tg6
I00
S"\xcf\x06\xcc\x81\xc25'@dh\xf6x]\x9d\xeb\xbfZ\xeb\xc2d\x92\x02\x17@"
tbsg64
I01
sg65
g61
(g62
(I0
tS'b'
tRp122
(I1
(I3
tg67
I00
S'\x01\x01\x01'
tbsg68
I00
sbag8
(g12
g13
NtRp123
(dp124
g16
g111
sg60
g61
(g62
(I0
tS'b'
tRp125
(I1
(I3
tg6
I00
S"J\xc28\xadR\xf6'@\x9f9Dg\xcd\x99\xd7\xbfw\rey\x8d\xa0D@"
tbsg64
I01
sg65
g61
(g62
(I0
tS'b'
tRp126
(I1
(I3
tg67
I00
S'\x01\x01\x01'
tbsg68
I00
sbag8
(g12
g13
NtRp127
(dp128
g16
g111
sg60
g61
(g62
(I0
tS'b'
tRp129
(I1
(I3
tg6
I00
S'\xb9ip0\x99\x9a(@6\x9ch\x84\x16\x19\xec\xbfKG\x03\x80\xf4\xe8#@'
tbsg64
I01
sg65
g61
(g62
(I0
tS'b'
tRp130
(I1
(I3
tg67
I00
S'\x01\x01\x01'
tbsg68
I00
sbag8
(g12
g13
NtRp131
(dp132
g16
g111
sg60
g61
(g62
(I0
tS'b'
tRp133
(I1
(I3
tg6
I00
S'\xff\xd1\xa9\xa5\xffJ)@B>\xe2\x1e\x80\xc1\xd1\xbf\xdf]\x11\x86(\xa0M@'
tbsg64
I01
sg65
g61
(g62
(I0
tS'b'
tRp134
(I1
(I3
tg67
I00
S'\x01\x01\x01'
tbsg68
I00
sbag8
(g12
g13
NtRp135
(dp136
g16
g111
sg60
g61
(g62
(I0
tS'b'
tRp137
(I1
(I3
tg6
I00
S'\x82\xacj\x9d\xb7\x9a*@\xc1-rmHc\xd2?U\x8e\xfeI\xde\xf4K@'
tbsg64
I01
sg65
g61
(g62
(I0
tS'b'
tRp138
(I1
(I3
tg67
I00
S'\x01\x01\x01'
tbsg68
I00
sbag8
(g12
g13
NtRp139
(dp140
g16
g111
sg60
g61
(g62
(I0
tS'b'
tRp141
(I1
(I3
tg6
I00
S'\xf7`\xb1V\xac\xda+@\xda%\rP8k\xc0\xbf\\\xa3Wg%\x83G@'
tbsg64
I01
sg65
g61
(g62
(I0
tS'b'
tRp142
(I1
(I3
tg67
I00
S'\x01\x01\x01'
tbsg68
I00
sbag8
(g12
g13
NtRp143
(dp144
g16
g111
sg60
g61
(g62
(I0
tS'b'
tRp145
(I1
(I3
tg6
I00
S'_\x91\xc1\x93\xf1\x06-@\xacJ\xa56\xc8\x87\xda\xbf\x1d\x145\x05_\xfbN@'
tbsg64
I01
sg65
g61
(g62
(I0
tS'b'
tRp146
(I1
(I3
tg67
I00
S'\x01\x01\x01'
tbsg68
I00
sbag8
(g12
g13
NtRp147
(dp148
g16
g111
sg60
g61
(g62
(I0
tS'b'
tRp149
(I1
(I3
tg6
I00
S'\x9f\x8f\xc6?\xacz.@\xdd\x06w!\xb0B\xf0?\xe9hZ\xedAud@'
tbsg64
I01
sg65
g61
(g62
(I0
tS'b'
tRp150
(I1
(I3
tg67
I00
S'\x01\x01\x01'
tbsg68
I00
sbatRp151
a(dp152
g60
g61
(g62
(I0
tS'b'
tRp153
(I1
(I2
tg6
I00
S"\x89>\xd8\xf8XU\xe0\xbf\xec\x01'\xa1\xea7\x81?"
tbsg64
I00
sg65
g61
(g62
(I0
tS'b'
tRp154
(I1
(I2
tg67
I00
S'\x01\x01'
tbsg68
I00
sag4
(g6
S'\x00\xec{\xf3\xe9\xce\xba?'
tRp155
aa(lp156
g4
(g6
S'`\x9c}R\xa0\xd4\xcf?'
tRp157
ag8
(g9
g10
(lp158
g8
(g12
g13
NtRp159
(dp160
g16
g8
(g17
g13
NtRp161
(dp162
g20
F5
sg21
(dp163
g20
(F5
g23
tp164
sg25
(F30
g23
tp165
sg27
(F4
g23
tp166
ssg27
F4
sg29
I3
sg25
F30
sg30
g32
sg41
g42
sg48
g49
sg53
g54
sbsg60
g61
(g62
(I0
tS'b'
tRp167
(I1
(I3
tg6
I00
S'z\x88\xc8r\x8d\x81&@N\xfd\x96f\xa8M\xde\xbf\xfa^\xff\x91u\x8bA@'
tbsg64
I01
sg65
g61
(g62
(I0
tS'b'
tRp168
(I1
(I3
tg67
I00
S'\x01\x01\x01'
tbsg68
I00
sbag8
(g12
g13
NtRp169
(dp170
g16
g161
sg60
g61
(g62
(I0
tS'b'
tRp171
(I1
(I3
tg6
I00
S"\xe0\xdc\x87\xf4B5'@\xe1\xd7\xad\xec\xe1\xd7\xeb\xbf\xeb.8\x19\x90\x8a\x16@"
tbsg64
I01
sg65
g61
(g62
(I0
tS'b'
tRp172
(I1
(I3
tg67
I00
S'\x01\x01\x01'
tbsg68
I00
sbag8
(g12
g13
NtRp173
(dp174
g16
g161
sg60
g61
(g62
(I0
tS'b'
tRp175
(I1
(I3
tg6
I00
S"\x9e%\x97\x03\x8a\xf6'@\x1e\n\xcc\xc1!\xff\xd6\xbf$\xf8C\xd6#\xc4D@"
tbsg64
I01
sg65
g61
(g62
(I0
tS'b'
tRp176
(I1
(I3
tg67
I00
S'\x01\x01\x01'
tbsg68
I00
sbag8
(g12
g13
NtRp177
(dp178
g16
g161
sg60
g61
(g62
(I0
tS'b'
tRp179
(I1
(I3
tg6
I00
S'<D\xdc\x86\xee\x9a(@\xee\x86v\x1a\xe0P\xec\xbf>\x1e.ZRm#@'
tbsg64
I01
sg65
g61
(g62
(I0
tS'b'
tRp180
(I1
(I3
tg67
I00
S'\x01\x01\x01'
tbsg68
I00
sbag8
(g12
g13
NtRp181
(dp182
g16
g161
sg60
g61
(g62
(I0
tS'b'
tRp183
(I1
(I3
tg6
I00
S'\xab\xd9\x11E\xf0J)@\x95\xb1\xed\x0e3\x9c\xd1\xbf3\xf7\xb5\xf4\xfc\xacM@'
tbsg64
I01
sg65
g61
(g62
(I0
tS'b'
tRp184
(I1
(I3
tg67
I00
S'\x01\x01\x01'
tbsg68
I00
sbag8
(g12
g13
NtRp185
(dp186
g16
g161
sg60
g61
(g62
(I0
tS'b'
tRp187
(I1
(I3
tg6
I00
S'\xe1:\xfc}\xb4\x9a*@\xf7\xdc\x81M\x1a"\xd2?9\x96:\xda\x7f\xeaK@'
tbsg64
I01
sg65
g61
(g62
(I0
tS'b'
tRp188
(I1
(I3
tg67
I00
S'\x01\x01\x01'
tbsg68
I00
sbag8
(g12
g13
NtRp189
(dp190
g16
g161
sg60
g61
(g62
(I0
tS'b'
tRp191
(I1
(I3
tg6
I00
S'\x88\x12\x01;\xa2\xda+@\x90\xcd5\x00\xa4(\xc0\xbf\x1a`T\\}\x8bG@'
tbsg64
I01
sg65
g61
(g62
(I0
tS'b'
tRp192
(I1
(I3
tg67
I00
S'\x01\x01\x01'
tbsg68
I00
sbag8
(g12
g13
NtRp193
(dp194
g16
g161
sg60
g61
(g62
(I0
tS'b'
tRp195
(I1
(I3
tg6
I00
S'y\x93\x9b\xf3\xaf\x06-@%\xea\x8f\xd4Z\xb3\xda\xbf\xa4r\xe8\xa8\xd2\xc8N@'
tbsg64
I01
sg65
g61
(g62
(I0
tS'b'
tRp196
(I1
(I3
tg67
I00
S'\x01\x01\x01'
tbsg68
I00
sbag8
(g12
g13
NtRp197
(dp198
g16
g161
sg60
g61
(g62
(I0
tS'b'
tRp199
(I1
(I3
tg6
I00
S'\xf1\xaa"\xc9\n\x85.@\x83yVE\xf2v\xf5?\x93\xd22\xcd_\xf2e@'
tbsg64
I01
sg65
g61
(g62
(I0
tS'b'
tRp200
(I1
(I3
tg67
I00
S'\x01\x01\x01'
tbsg68
I00
sbatRp201
a(dp202
g60
g61
(g62
(I0
tS'b'
tRp203
(I1
(I2
tg6
I00
S"\x89>\xd8\xf8XU\xe0\xbf\xec\x01'\xa1\xea7\x81?"
tbsg64
I00
sg65
g61
(g62
(I0
tS'b'
tRp204
(I1
(I2
tg67
I00
S'\x01\x01'
tbsg68
I00
sag4
(g6
S'\x00\xec{\xf3\xe9\xce\xba?'
tRp205
aa(lp206
g4
(g6
S'__Y\xd7\xd6=\xd1?'
tRp207
ag8
(g9
g10
(lp208
g8
(g12
g13
NtRp209
(dp210
g16
g8
(g17
g13
NtRp211
(dp212
g20
F5
sg21
(dp213
g20
(F5
g23
tp214
sg25
(F30
g23
tp215
sg27
(F4
g23
tp216
ssg27
F4
sg29
I3
sg25
F30
sg30
g32
sg41
g42
sg48
g49
sg53
g54
sbsg60
g61
(g62
(I0
tS'b'
tRp217
(I1
(I3
tg6
I00
S'm\x85\xc5r\x8d\x81&@\xf3\x8e\xc2g\xa8M\xde\xbf\x98\n|\x91u\x8bA@'
tbsg64
I01
sg65
g61
(g62
(I0
tS'b'
tRp218
(I1
(I3
tg67
I00
S'\x01\x01\x01'
tbsg68
I00
sbag8
(g12
g13
NtRp219
(dp220
g16
g211
sg60
g61
(g62
(I0
tS'b'
tRp221
(I1
(I3
tg6
I00
S"\xb1\x13\xe3\xf4B5'@JU\x9f\xd0\xe1\xd7\xeb\xbf!\xdd\xc1Y\x90\x8a\x16@"
tbsg64
I01
sg65
g61
(g62
(I0
tS'b'
tRp222
(I1
(I3
tg67
I00
S'\x01\x01\x01'
tbsg68
I00
sbag8
(g12
g13
NtRp223
(dp224
g16
g211
sg60
g61
(g62
(I0
tS'b'
tRp225
(I1
(I3
tg6
I00
S'5\xd7t\x03\x8a\xf6\'@\xfc\t:""\xff\xd6\xbf\xd8\xe7\xb7\xc0#\xc4D@'
tbsg64
I01
sg65
g61
(g62
(I0
tS'b'
tRp226
(I1
(I3
tg67
I00
S'\x01\x01\x01'
tbsg68
I00
sbag8
(g12
g13
NtRp227
(dp228
g16
g211
sg60
g61
(g62
(I0
tS'b'
tRp229
(I1
(I3
tg6
I00
S'8\xfc\x8f\x86\xee\x9a(@\x83\xc7\xeb\x02\xe0P\xec\xbf\xa2\x15]\x95Rm#@'
tbsg64
I01
sg65
g61
(g62
(I0
tS'b'
tRp230
(I1
(I3
tg67
I00
S'\x01\x01\x01'
tbsg68
I00
sbag8
(g12
g13
NtRp231
(dp232
g16
g211
sg60
g61
(g62
(I0
tS'b'
tRp233
(I1
(I3
tg6
I00
S'=\x86\x0fE\xf0J)@\xb88\xe8\x153\x9c\xd1\xbf\xa1\x93\x17\xf2\xfc\xacM@'
tbsg64
I01
sg65
g61
(g62
(I0
tS'b'
tRp234
(I1
(I3
tg67
I00
S'\x01\x01\x01'
tbsg68
I00
sbag8
(g12
g13
NtRp235
(dp236
g16
g211
sg60
g61
(g62
(I0
tS'b'
tRp237
(I1
(I3
tg6
I00
S'\x85\x0b\x02~\xb4\x9a*@\xdat\x04j\x1a"\xd2?\x1c\x14\xc4\xde\x7f\xeaK@'
tbsg64
I01
sg65
g61
(g62
(I0
tS'b'
tRp238
(I1
(I3
tg67
I00
S'\x01\x01\x01'
tbsg68
I00
sbag8
(g12
g13
NtRp239
(dp240
g16
g211
sg60
g61
(g62
(I0
tS'b'
tRp241
(I1
(I3
tg6
I00
S'\x00x\x02;\xa2\xda+@n^\x11*\xa4(\xc0\xbfC\x86~W}\x8bG@'
tbsg64
I01
sg65
g61
(g62
(I0
tS'b'
tRp242
(I1
(I3
tg67
I00
S'\x01\x01\x01'
tbsg68
I00
sbag8
(g12
g13
NtRp243
(dp244
g16
g211
sg60
g61
(g62
(I0
tS'b'
tRp245
(I1
(I3
tg6
I00
S'\xea\xa1\xda\xf3\xaf\x06-@~3\\\xabZ\xb3\xda\xbfe\xa8P\xdb\xd2\xc8N@'
tbsg64
I01
sg65
g61
(g62
(I0
tS'b'
tRp246
(I1
(I3
tg67
I00
S'\x01\x01\x01'
tbsg68
I00
sbag8
(g12
g13
NtRp247
(dp248
g16
g211
sg60
g61
(g62
(I0
tS'b'
tRp249
(I1
(I3
tg6
I00
S'\x7fBA\xbd\n\x85.@uj\xc6\xa8\xe8v\xf5?\\\xa6N\x0e^\xf2e@'
tbsg64
I01
sg65
g61
(g62
(I0
tS'b'
tRp250
(I1
(I3
tg67
I00
S'\x01\x01\x01'
tbsg68
I00
sbatRp251
a(dp252
g60
g61
(g62
(I0
tS'b'
tRp253
(I1
(I2
tg6
I00
S"\x89>\xd8\xf8XU\xe0\xbf\xec\x01'\xa1\xea7\x81?"
tbsg64
I00
sg65
g61
(g62
(I0
tS'b'
tRp254
(I1
(I2
tg67
I00
S'\x01\x01'
tbsg68
I00
sag4
(g6
S'\x00\xec{\xf3\xe9\xce\xba?'
tRp255
aa(lp256
g4
(g6
S'\x8e\xf0s\x85]\x91\xd2?'
tRp257
ag8
(g9
g10
(lp258
g8
(g12
g13
NtRp259
(dp260
g16
g8
(g17
g13
NtRp261
(dp262
g20
F5
sg21
(dp263
g20
(F5
g23
tp264
sg25
(F30
g23
tp265
sg27
(F4
g23
tp266
ssg27
F4
sg29
I3
sg25
F30
sg30
g32
sg41
g42
sg48
g49
sg53
g54
sbsg60
g61
(g62
(I0
tS'b'
tRp267
(I1
(I3
tg6
I00
S'X?\xc3r\x8d\x81&@\x0e\n\xa5h\xa8M\xde\xbf\xe1\xe3\x18\x91u\x8bA@'
tbsg64
I01
sg65
g61
(g62
(I0
tS'b'
tRp268
(I1
(I3
tg67
I00
S'\x01\x01\x01'
tbsg68
I00
sbag8
(g12
g13
NtRp269
(dp270
g16
g261
sg60
g61
(g62
(I0
tS'b'
tRp271
(I1
(I3
tg6
I00
S"\x95\xcf'\xf5B5'@w\xb9x\xbb\xe1\xd7\xeb\xbf\xe7\x02g\x8a\x90\x8a\x16@"
tbsg64
I01
sg65
g61
(g62
(I0
tS'b'
tRp272
(I1
(I3
tg67
I00
S'\x01\x01\x01'
tbsg68
I00
sbag8
(g12
g13
NtRp273
(dp274
g16
g261
sg60
g61
(g62
(I0
tS'b'
tRp275
(I1
(I3
tg6
I00
S'\x0c\xfcZ\x03\x8a\xf6\'@\x04\x9c\xe6j"\xff\xd6\xbf/\x9dz\xb0#\xc4D@'
tbsg64
I01
sg65
g61
(g62
(I0
tS'b'
tRp276
(I1
(I3
tg67
I00
S'\x01\x01\x01'
tbsg68
I00
sbag8
(g12
g13
NtRp277
(dp278
g16
g261
sg60
g61
(g62
(I0
tS'b'
tRp279
(I1
(I3
tg6
I00
S'\x9d\x82V\x86\xee\x9a(@\x8c\x8b+\xf1\xdfP\xec\xbft\x8b\xfa\xc1Rm#@'
tbsg64
I01
sg65
g61
(g62
(I0
tS'b'
tRp280
(I1
(I3
tg67
I00
S'\x01\x01\x01'
tbsg68
I00
sbag8
(g12
g13
NtRp281
(dp282
g16
g261
sg60
g61
(g62
(I0
tS'b'
tRp283
(I1
(I3
tg6
I00
S'\xf7\xc7\rE\xf0J)@\xec\x9e,\x1b3\x9c\xd1\xbf\xd3\xab\x1d\xf0\xfc\xacM@'
tbsg64
I01
sg65
g61
(g62
(I0
tS'b'
tRp284
(I1
(I3
tg67
I00
S'\x01\x01\x01'
tbsg68
I00
sbag8
(g12
g13
NtRp285
(dp286
g16
g261
sg60
g61
(g62
(I0
tS'b'
tRp287
(I1
(I3
tg6
I00
S'\xb9l\x06~\xb4\x9a*@\xb9s\x80\x7f\x1a"\xd2?\xb0]/\xe2\x7f\xeaK@'
tbsg64
I01
sg65
g61
(g62
(I0
tS'b'
tRp288
(I1
(I3
tg67
I00
S'\x01\x01\x01'
tbsg68
I00
sbag8
(g12
g13
NtRp289
(dp290
g16
g261
sg60
g61
(g62
(I0
tS'b'
tRp291
(I1
(I3
tg6
I00
S'\xa3\x85\x03;\xa2\xda+@\xc2\x19\x9bI\xa4(\xc0\xbf2\xd3\xd9S}\x8bG@'
tbsg64
I01
sg65
g61
(g62
(I0
tS'b'
tRp292
(I1
(I3
tg67
I00
S'\x01\x01\x01'
tbsg68
I00
sbag8
(g12
g13
NtRp293
(dp294
g16
g261
sg60
g61
(g62
(I0
tS'b'
tRp295
(I1
(I3
tg6
I00
S'C(\n\xf4\xaf\x06-@\x0f\xa6O\x8cZ\xb3\xda\xbf|\xd3M\x01\xd3\xc8N@'
tbsg64
I01
sg65
g61
(g62
(I0
tS'b'
tRp296
(I1
(I3
tg67
I00
S'\x01\x01\x01'
tbsg68
I00
sbag8
(g12
g13
NtRp297
(dp298
g16
g261
sg60
g61
(g62
(I0
tS'b'
tRp299
(I1
(I3
tg6
I00
S'\x89(M\xb4\n\x85.@\x18\xceqj\xe1v\xf5?\xe1r\x84\xbd\\\xf2e@'
tbsg64
I01
sg65
g61
(g62
(I0
tS'b'
tRp300
(I1
(I3
tg67
I00
S'\x01\x01\x01'
tbsg68
I00
sbatRp301
a(dp302
g60
g61
(g62
(I0
tS'b'
tRp303
(I1
(I2
tg6
I00
S"\x89>\xd8\xf8XU\xe0\xbf\xec\x01'\xa1\xea7\x81?"
tbsg64
I00
sg65
g61
(g62
(I0
tS'b'
tRp304
(I1
(I2
tg67
I00
S'\x01\x01'
tbsg68
I00
sag4
(g6
S'\x00\xec{\xf3\xe9\xce\xba?'
tRp305
aa(lp306
g4
(g6
S'\xbc\x81\x8e3\xe4\xe4\xd3?'
tRp307
ag8
(g9
g10
(lp308
g8
(g12
g13
NtRp309
(dp310
g16
g8
(g17
g13
NtRp311
(dp312
g20
F5
sg21
(dp313
g20
(F5
g23
tp314
sg25
(F30
g23
tp315
sg27
(F4
g23
tp316
ssg27
F4
sg29
I3
sg25
F30
sg30
g32
sg41
g42
sg48
g49
sg53
g54
sbsg60
g61
(g62
(I0
tS'b'
tRp317
(I1
(I3
tg6
I00
S'#O\x04\rT\x80&@\xcd\xae\xf1\xee:3\xdd\xbf\xad&\xc2\x91\xfb-A@'
tbsg64
I01
sg65
g61
(g62
(I0
tS'b'
tRp318
(I1
(I3
tg67
I00
S'\x01\x01\x01'
tbsg68
I00
sbag8
(g12
g13
NtRp319
(dp320
g16
g311
sg60
g61
(g62
(I0
tS'b'
tRp321
(I1
(I3
tg6
I00
S"\xb55\x1f\xa0\xd9\xe9'@\xa0\xb1mst\xe5\xf0\xbfQ\xc5\xa6\xa5m|\x10@"
tbsg64
I01
sg65
g61
(g62
(I0
tS'b'
tRp322
(I1
(I3
tg67
I00
S'\x01\x01\x01'
tbsg68
I00
sbag8
(g12
g13
NtRp323
(dp324
g16
g311
sg60
g61
(g62
(I0
tS'b'
tRp325
(I1
(I3
tg6
I00
S'\xcf\xc2\xe1b\xd8\x18(@\x96\x97\xba\x1d>\x1d\xf9?M\xb2\x11h\xd1\xe7M@'
tbsg64
I01
sg65
g61
(g62
(I0
tS'b'
tRp326
(I1
(I3
tg67
I00
S'\x01\x01\x01'
tbsg68
I00
sbag8
(g12
g13
NtRp327
(dp328
g16
g311
sg60
g61
(g62
(I0
tS'b'
tRp329
(I1
(I3
tg6
I00
S'\x1a\xd2 \xc7gS)@B\xf7}^M\x05\xd3\xbf\xe2\xad"\xb6J\xb6J@'
tbsg64
I01
sg65
g61
(g62
(I0
tS'b'
tRp330
(I1
(I3
tg67
I00
S'\x01\x01\x01'
tbsg68
I00
sbag8
(g12
g13
NtRp331
(dp332
g16
g311
sg60
g61
(g62
(I0
tS'b'
tRp333
(I1
(I3
tg6
I00
S'\x12\x9bI,\xcf\x9b*@x\x13c\xad\xf7\x82\xd0?F\x14\xc6\xbd\xaf\xaeK@'
tbsg64
I01
sg65
g61
(g62
(I0
tS'b'
tRp334
(I1
(I3
tg67
I00
S'\x01\x01\x01'
tbsg68
I00
sbag8
(g12
g13
NtRp335
(dp336
g16
g311
sg60
g61
(g62
(I0
tS'b'
tRp337
(I1
(I3
tg6
I00
S'\x9c\xc8\x03;\xa2\xda+@r1oQ\xa4(\xc0\xbfkM\xf2R}\x8bG@'
tbsg64
I01
sg65
g61
(g62
(I0
tS'b'
tRp338
(I1
(I3
tg67
I00
S'\x01\x01\x01'
tbsg68
I00
sbag8
(g12
g13
NtRp339
(dp340
g16
g311
sg60
g61
(g62
(I0
tS'b'
tRp341
(I1
(I3
tg6
I00
S'\xa8\xf4\x15\xf4\xaf\x06-@\xa0}\x9a\x84Z\xb3\xda\xbf\x08\x1c\xbc\n\xd3\xc8N@'
tbsg64
I01
sg65
g61
(g62
(I0
tS'b'
tRp342
(I1
(I3
tg67
I00
S'\x01\x01\x01'
tbsg68
I00
sbag8
(g12
g13
NtRp343
(dp344
g16
g311
sg60
g61
(g62
(I0
tS'b'
tRp345
(I1
(I3
tg6
I00
S'\x9c%\x14\xb2\n\x85.@)\x08\x1d\x9e\xdfv\xf5?[\xef\xe8i\\\xf2e@'
tbsg64
I01
sg65
g61
(g62
(I0
tS'b'
tRp346
(I1
(I3
tg67
I00
S'\x01\x01\x01'
tbsg68
I00
sbatRp347
a(dp348
g60
g61
(g62
(I0
tS'b'
tRp349
(I1
(I2
tg6
I00
S"\x89>\xd8\xf8XU\xe0\xbf\xec\x01'\xa1\xea7\x81?"
tbsg64
I00
sg65
g61
(g62
(I0
tS'b'
tRp350
(I1
(I2
tg67
I00
S'\x01\x01'
tbsg68
I00
sag4
(g6
S'\x00\xec{\xf3\xe9\xce\xba?'
tRp351
aa(lp352
g4
(g6
S'\xeb\x12\xa9\xe1j8\xd5?'
tRp353
ag8
(g9
g10
(lp354
g8
(g12
g13
NtRp355
(dp356
g16
g8
(g17
g13
NtRp357
(dp358
g20
F5
sg21
(dp359
g20
(F5
g23
tp360
sg25
(F30
g23
tp361
sg27
(F4
g23
tp362
ssg27
F4
sg29
I3
sg25
F30
sg30
g32
sg41
g42
sg48
g49
sg53
g54
sbsg60
g61
(g62
(I0
tS'b'
tRp363
(I1
(I3
tg6
I00
S'T\xa1\x0c\rT\x80&@k\xdcq\xe4:3\xdd\xbf\x9aM\xf6\x93\xfb-A@'
tbsg64
I01
sg65
g61
(g62
(I0
tS'b'
tRp364
(I1
(I3
tg67
I00
S'\x01\x01\x01'
tbsg68
I00
sbag8
(g12
g13
NtRp365
(dp366
g16
g357
sg60
g61
(g62
(I0
tS'b'
tRp367
(I1
(I3
tg6
I00
S"\x03\xb0C\xa0\xd9\xe9'@\xb0\x87\xecYt\xe5\xf0\xbf\x91\xba\x8e\xe0m|\x10@"
tbsg64
I01
sg65
g61
(g62
(I0
tS'b'
tRp368
(I1
(I3
tg67
I00
S'\x01\x01\x01'
tbsg68
I00
sbag8
(g12
g13
NtRp369
(dp370
g16
g357
sg60
g61
(g62
(I0
tS'b'
tRp371
(I1
(I3
tg6
I00
S'\xf1o\x91b\xd8\x18(@\xc3\xa5\x1d\xe1?\x1d\xf9?\x12\x1a\x15P\xd1\xe7M@'
tbsg64
I01
sg65
g61
(g62
(I0
tS'b'
tRp372
(I1
(I3
tg67
I00
S'\x01\x01\x01'
tbsg68
I00
sbag8
(g12
g13
NtRp373
(dp374
g16
g357
sg60
g61
(g62
(I0
tS'b'
tRp375
(I1
(I3
tg6
I00
S'\xa4Z\x13\xc7gS)@\xc4\xa4\xca\x1bM\x05\xd3\xbf\xa60\xff\xcdJ\xb6J@'
tbsg64
I01
sg65
g61
(g62
(I0
tS'b'
tRp376
(I1
(I3
tg67
I00
S'\x01\x01\x01'
tbsg68
I00
sbag8
(g12
g13
NtRp377
(dp378
g16
g357
sg60
g61
(g62
(I0
tS'b'
tRp379
(I1
(I3
tg6
I00
S'X\xefZ,\xcf\x9b*@\xd1\xfa\xedR\xf7\x82\xd0?\x19]\x1b\xaf\xaf\xaeK@'
tbsg64
I01
sg65
g61
(g62
(I0
tS'b'
tRp380
(I1
(I3
tg67
I00
S'\x01\x01\x01'
tbsg68
I00
sbag8
(g12
g13
NtRp381
(dp382
g16
g357
sg60
g61
(g62
(I0
tS'b'
tRp383
(I1
(I3
tg6
I00
S'\xfa\n\x01;\xa2\xda+@\x82mS\xff\xa3(\xc0\xbf\xa2\x86n\\}\x8bG@'
tbsg64
I01
sg65
g61
(g62
(I0
tS'b'
tRp384
(I1
(I3
tg67
I00
S'\x01\x01\x01'
tbsg68
I00
sbag8
(g12
g13
NtRp385
(dp386
g16
g357
sg60
g61
(g62
(I0
tS'b'
tRp387
(I1
(I3
tg6
I00
S'\x98>\x9a\xf3\xaf\x06-@\xdc\xaen\xd5Z\xb3\xda\xbfv\xef\xd7\xa7\xd2\xc8N@'
tbsg64
I01
sg65
g61
(g62
(I0
tS'b'
tRp388
(I1
(I3
tg67
I00
S'\x01\x01\x01'
tbsg68
I00
sbag8
(g12
g13
NtRp389
(dp390
g16
g357
sg60
g61
(g62
(I0
tS'b'
tRp391
(I1
(I3
tg6
I00
S'w\xe5b\xc9\n\x85.@\xa2\xc2Ly\xf2v\xf5?N\xd3\xa2\xd6_\xf2e@'
tbsg64
I01
sg65
g61
(g62
(I0
tS'b'
tRp392
(I1
(I3
tg67
I00
S'\x01\x01\x01'
tbsg68
I00
sbatRp393
a(dp394
g60
g61
(g62
(I0
tS'b'
tRp395
(I1
(I2
tg6
I00
S"\x89>\xd8\xf8XU\xe0\xbf\xec\x01'\xa1\xea7\x81?"
tbsg64
I00
sg65
g61
(g62
(I0
tS'b'
tRp396
(I1
(I2
tg67
I00
S'\x01\x01'
tbsg68
I00
sag4
(g6
S'\x00\xec{\xf3\xe9\xce\xba?'
tRp397
aa(lp398
g4
(g6
S'\x1a\xa4\xc3\x8f\xf1\x8b\xd6?'
tRp399
ag8
(g9
g10
(lp400
g8
(g12
g13
NtRp401
(dp402
g16
g8
(g17
g13
NtRp403
(dp404
g20
F5
sg21
(dp405
g20
(F5
g23
tp406
sg25
(F30
g23
tp407
sg27
(F4
g23
tp408
ssg27
F4
sg29
I3
sg25
F30
sg30
g32
sg41
g42
sg48
g49
sg53
g54
sbsg60
g61
(g62
(I0
tS'b'
tRp409
(I1
(I3
tg6
I00
S'\x1c\x1a\n\rT\x80&@M\xbb\xa2\xe7:3\xdd\xbfk\xe2J\x93\xfb-A@'
tbsg64
I01
sg65
g61
(g62
(I0
tS'b'
tRp410
(I1
(I3
tg67
I00
S'\x01\x01\x01'
tbsg68
I00
sbag8
(g12
g13
NtRp411
(dp412
g16
g403
sg60
g61
(g62
(I0
tS'b'
tRp413
(I1
(I3
tg6
I00
S"\x90\x978\xa0\xd9\xe9'@\xe4\xc6\xadat\xe5\xf0\xbf\xce\x9d\xa4\xcem|\x10@"
tbsg64
I01
sg65
g61
(g62
(I0
tS'b'
tRp414
(I1
(I3
tg67
I00
S'\x01\x01\x01'
tbsg68
I00
sbag8
(g12
g13
NtRp415
(dp416
g16
g403
sg60
g61
(g62
(I0
tS'b'
tRp417
(I1
(I3
tg6
I00
S'\x11\xdc\xa9b\xd8\x18(@\x8d\xd1\xeaW?\x1d\xf9?(\x1a`W\xd1\xe7M@'
tbsg64
I01
sg65
g61
(g62
(I0
tS'b'
tRp418
(I1
(I3
tg67
I00
S'\x01\x01\x01'
tbsg68
I00
sbag8
(g12
g13
NtRp419
(dp420
g16
g403
sg60
g61
(g62
(I0
tS'b'
tRp421
(I1
(I3
tg6
I00
S'ir\x17\xc7gS)@\xcf*\x130M\x05\xd3\xbfT\xd7\xbd\xc6J\xb6J@'
tbsg64
I01
sg65
g61
(g62
(I0
tS'b'
tRp422
(I1
(I3
tg67
I00
S'\x01\x01\x01'
tbsg68
I00
sbag8
(g12
g13
NtRp423
(dp424
g16
g403
sg60
g61
(g62
(I0
tS'b'
tRp425
(I1
(I3
tg6
I00
S'*\xa9U,\xcf\x9b*@\xe1/on\xf7\x82\xd0?\xb7\x03\x91\xb3\xaf\xaeK@'
tbsg64
I01
sg65
g61
(g62
(I0
tS'b'
tRp426
(I1
(I3
tg67
I00
S'\x01\x01\x01'
tbsg68
I00
sbag8
(g12
g13
NtRp427
(dp428
g16
g403
sg60
g61
(g62
(I0
tS'b'
tRp429
(I1
(I3
tg6
I00
S'\x13\xe0\x01;\xa2\xda+@\x8b\xeaH\x18\xa4(\xc0\xbf\xbcl\x8cY}\x8bG@'
tbsg64
I01
sg65
g61
(g62
(I0
tS'b'
tRp430
(I1
(I3
tg67
I00
S'\x01\x01\x01'
tbsg68
I00
sbag8
(g12
g13
NtRp431
(dp432
g16
g403
sg60
g61
(g62
(I0
tS'b'
tRp433
(I1
(I3
tg6
I00
S'8\xd7\xbf\xf3\xaf\x06-@.\x92\xdd\xbcZ\xb3\xda\xbf\x13\xf2\xe5\xc5\xd2\xc8N@'
tbsg64
I01
sg65
g61
(g62
(I0
tS'b'
tRp434
(I1
(I3
tg67
I00
S'\x01\x01\x01'
tbsg68
I00
sbag8
(g12
g13
NtRp435
(dp436
g16
g403
sg60
g61
(g62
(I0
tS'b'
tRp437
(I1
(I3
tg6
I00
S'\xdczM\xc2\n\x85.@F\xf53\xbe\xecv\xf5?%\x1f.\xcc^\xf2e@'
tbsg64
I01
sg65
g61
(g62
(I0
tS'b'
tRp438
(I1
(I3
tg67
I00
S'\x01\x01\x01'
tbsg68
I00
sbatRp439
a(dp440
g60
g61
(g62
(I0
tS'b'
tRp441
(I1
(I2
tg6
I00
S"\x89>\xd8\xf8XU\xe0\xbf\xec\x01'\xa1\xea7\x81?"
tbsg64
I00
sg65
g61
(g62
(I0
tS'b'
tRp442
(I1
(I2
tg67
I00
S'\x01\x01'
tbsg68
I00
sag4
(g6
S'\x00\xec{\xf3\xe9\xce\xba?'
tRp443
aa(lp444
g4
(g6
S'H5\xde=x\xdf\xd7?'
tRp445
ag8
(g9
g10
(lp446
g8
(g12
g13
NtRp447
(dp448
g16
g8
(g17
g13
NtRp449
(dp450
g20
F5
sg21
(dp451
g20
(F5
g23
tp452
sg25
(F30
g23
tp453
sg27
(F4
g23
tp454
ssg27
F4
sg29
I3
sg25
F30
sg30
g32
sg41
g42
sg48
g49
sg53
g54
sbsg60
g61
(g62
(I0
tS'b'
tRp455
(I1
(I3
tg6
I00
S"h\x1a3fR\x80&@&\xbb~t\x894\xdd\xbf>\xab\xc1'\xa8-A@"
tbsg64
I01
sg65
g61
(g62
(I0
tS'b'
tRp456
(I1
(I3
tg67
I00
S'\x01\x01\x01'
tbsg68
I00
sbag8
(g12
g13
NtRp457
(dp458
g16
g449
sg60
g61
(g62
(I0
tS'b'
tRp459
(I1
(I3
tg6
I00
S"\x9e\xd4\xd40\xdf\xe9'@\xf3\xf3\xee:\xe6\xe6\xf0\xbf^R7\r\xa3z\x10@"
tbsg64
I01
sg65
g61
(g62
(I0
tS'b'
tRp460
(I1
(I3
tg67
I00
S'\x01\x01\x01'
tbsg68
I00
sbag8
(g12
g13
NtRp461
(dp462
g16
g449
sg60
g61
(g62
(I0
tS'b'
tRp463
(I1
(I3
tg6
I00
S'\xf1\x0b"\xd0\xcd\x18(@\x1f\xbb\xd6/\xe8\x1d\xf9?\x0fU\xd5nX\xe7M@'
tbsg64
I01
sg65
g61
(g62
(I0
tS'b'
tRp464
(I1
(I3
tg67
I00
S'\x01\x01\x01'
tbsg68
I00
sbag8
(g12
g13
NtRp465
(dp466
g16
g449
sg60
g61
(g62
(I0
tS'b'
tRp467
(I1
(I3
tg6
I00
S'\x90\x85W\xd4tS)@F\x8es\xa0L\xf9\xd2\xbf\xc1\x8c\xb7\x0e\x13\xbcJ@'
tbsg64
I01
sg65
g61
(g62
(I0
tS'b'
tRp468
(I1
(I3
tg67
I00
S'\x01\x01\x01'
tbsg68
I00
sbag8
(g12
g13
NtRp469
(dp470
g16
g449
sg60
g61
(g62
(I0
tS'b'
tRp471
(I1
(I3
tg6
I00
S'\xf6O"F\x97\x9b*@\x94TM\x8e\xbd\xfe\xcf?{\x0e\xe5\xa0\xa5\x9cK@'
tbsg64
I01
sg65
g61
(g62
(I0
tS'b'
tRp472
(I1
(I3
tg67
I00
S'\x01\x01\x01'
tbsg68
I00
sbag8
(g12
g13
NtRp473
(dp474
g16
g449
sg60
g61
(g62
(I0
tS'b'
tRp475
(I1
(I3
tg6
I00
S'<v\xc1k,\xda+@q\xf2M\xbd\x1c(\xc0\xbfo+`\x88\xa5\x9aG@'
tbsg64
I01
sg65
g61
(g62
(I0
tS'b'
tRp476
(I1
(I3
tg67
I00
S'\x01\x01\x01'
tbsg68
I00
sbag8
(g12
g13
NtRp477
(dp478
g16
g449
sg60
g61
(g62
(I0
tS'b'
tRp479
(I1
(I3
tg6
I00
S"\x1c\x04'\xf1\n\x07-@\xb6Wa\x84ln\xda\xbfx\xb0\x17L\xd2\x11O@"
tbsg64
I01
sg65
g61
(g62
(I0
tS'b'
tRp480
(I1
(I3
tg67
I00
S'\x01\x01\x01'
tbsg68
I00
sbag8
(g12
g13
NtRp481
(dp482
g16
g449
sg60
g61
(g62
(I0
tS'b'
tRp483
(I1
(I3
tg6
I00
S'\xa9\xbc,\xb6\xbfv.@>\x9eE\x9b\xef\xd4\xed?OZ\x19~\x0e\xe8c@'
tbsg64
I01
sg65
g61
(g62
(I0
tS'b'
tRp484
(I1
(I3
tg67
I00
S'\x01\x01\x01'
tbsg68
I00
sbatRp485
a(dp486
g60
g61
(g62
(I0
tS'b'
tRp487
(I1
(I2
tg6
I00
S"\x89>\xd8\xf8XU\xe0\xbf\xec\x01'\xa1\xea7\x81?"
tbsg64
I00
sg65
g61
(g62
(I0
tS'b'
tRp488
(I1
(I2
tg67
I00
S'\x01\x01'
tbsg68
I00
sag4
(g6
S'\x00\xec{\xf3\xe9\xce\xba?'
tRp489
aa(lp490
g4
(g6
S'v\xc6\xf8\xeb\xfe2\xd9?'
tRp491
ag8
(g9
g10
(lp492
g8
(g12
g13
NtRp493
(dp494
g16
g8
(g17
g13
NtRp495
(dp496
g20
F5
sg21
(dp497
g20
(F5
g23
tp498
sg25
(F30
g23
tp499
sg27
(F4
g23
tp500
ssg27
F4
sg29
I3
sg25
F30
sg30
g32
sg41
g42
sg48
g49
sg53
g54
sbsg60
g61
(g62
(I0
tS'b'
tRp501
(I1
(I3
tg6
I00
S'\xc4\x90;\x00T\x80&@\xaa2;\x89\x0e3\xdd\xbfa\t\xc1 \x00.A@'
tbsg64
I01
sg65
g61
(g62
(I0
tS'b'
tRp502
(I1
(I3
tg67
I00
S'\x01\x01\x01'
tbsg68
I00
sbag8
(g12
g13
NtRp503
(dp504
g16
g495
sg60
g61
(g62
(I0
tS'b'
tRp505
(I1
(I3
tg6
I00
S"s\x14=\xf5\xd9\xe9'@De\x98\xac\x93\xe5\xf0\xbf\xfc\xa9\x15\xecs|\x10@"
tbsg64
I01
sg65
g61
(g62
(I0
tS'b'
tRp506
(I1
(I3
tg67
I00
S'\x01\x01\x01'
tbsg68
I00
sbag8
(g12
g13
NtRp507
(dp508
g16
g495
sg60
g61
(g62
(I0
tS'b'
tRp509
(I1
(I3
tg6
I00
S'\xb2\xb2h~\xd7\x18(@\xd4&\x11\xa80\x1c\xf9?{.\xb66\xb5\xe7M@'
tbsg64
I01
sg65
g61
(g62
(I0
tS'b'
tRp510
(I1
(I3
tg67
I00
S'\x01\x01\x01'
tbsg68
I00
sbag8
(g12
g13
NtRp511
(dp512
g16
g495
sg60
g61
(g62
(I0
tS'b'
tRp513
(I1
(I3
tg6
I00
S'\xed\tY\xd7dS)@Y\x83\x1b\x8cn\x06\xd3\xbf\x9e\xd6#\x11\xad\xb5J@'
tbsg64
I01
sg65
g61
(g62
(I0
tS'b'
tRp514
(I1
(I3
tg67
I00
S'\x01\x01\x01'
tbsg68
I00
sbag8
(g12
g13
NtRp515
(dp516
g16
g495
sg60
g61
(g62
(I0
tS'b'
tRp517
(I1
(I3
tg6
I00
S'\x0f\x07)\xae\xd6\x9b*@t\xdaZ\t\xc9\x94\xd0?\x1eRZzy\xb1K@'
tbsg64
I01
sg65
g61
(g62
(I0
tS'b'
tRp518
(I1
(I3
tg67
I00
S'\x01\x01\x01'
tbsg68
I00
sbag8
(g12
g13
NtRp519
(dp520
g16
g495
sg60
g61
(g62
(I0
tS'b'
tRp521
(I1
(I3
tg6
I00
S'\r\x13\xf9\xd9\xa8\xda+@Z\x9b\xbc \x03>\xc0\xbf$\x18\xfcB\x93\x88G@'
tbsg64
I01
sg65
g61
(g62
(I0
tS'b'
tRp522
(I1
(I3
tg67
I00
S'\x01\x01\x01'
tbsg68
I00
sbag8
(g12
g13
NtRp523
(dp524
g16
g495
sg60
g61
(g62
(I0
tS'b'
tRp525
(I1
(I3
tg6
I00
S'\x8c\xa2b\x8d\xbc\x06-@X\xbbSn\x80\xaa\xda\xbfZ\xa8\x1f\x10n\xd3N@'
tbsg64
I01
sg65
g61
(g62
(I0
tS'b'
tRp526
(I1
(I3
tg67
I00
S'\x01\x01\x01'
tbsg68
I00
sbag8
(g12
g13
NtRp527
(dp528
g16
g495
sg60
g61
(g62
(I0
tS'b'
tRp529
(I1
(I3
tg6
I00
S'\x84\x04cD\xb5\x82.@\x00\xa0:LM\xe0\xf3?4\xfd\x86\\7\x9be@'
tbsg64
I01
sg65
g61
(g62
(I0
tS'b'
tRp530
(I1
(I3
tg67
I00
S'\x01\x01\x01'
tbsg68
I00
sbatRp531
a(dp532
g60
g61
(g62
(I0
tS'b'
tRp533
(I1
(I2
tg6
I00
S"\x89>\xd8\xf8XU\xe0\xbf\xec\x01'\xa1\xea7\x81?"
tbsg64
I00
sg65
g61
(g62
(I0
tS'b'
tRp534
(I1
(I2
tg67
I00
S'\x01\x01'
tbsg68
I00
sag4
(g6
S'\x00\xec{\xf3\xe9\xce\xba?'
tRp535
aa(lp536
g4
(g6
S'\xa5W\x13\x9a\x85\x86\xda?'
tRp537
ag8
(g9
g10
(lp538
g8
(g12
g13
NtRp539
(dp540
g16
g8
(g17
g13
NtRp541
(dp542
g20
F5
sg21
(dp543
g20
(F5
g23
tp544
sg25
(F30
g23
tp545
sg27
(F4
g23
tp546
ssg27
F4
sg29
I3
sg25
F30
sg30
g32
sg41
g42
sg48
g49
sg53
g54
sbsg60
g61
(g62
(I0
tS'b'
tRp547
(I1
(I3
tg6
I00
S"\x03\xbb\x82\rP\x80&@C\x07\xb2 S6\xdd\xbf'\xedc//-A@"
tbsg64
I01
sg65
g61
(g62
(I0
tS'b'
tRp548
(I1
(I3
tg67
I00
S'\x01\x01\x01'
tbsg68
I00
sbag8
(g12
g13
NtRp549
(dp550
g16
g541
sg60
g61
(g62
(I0
tS'b'
tRp551
(I1
(I3
tg6
I00
S"\xf8Q\x1a\x88\xe9\xe9'@<~\x02\xcdK\xea\xf0\xbfDw\xca\xf9%u\x10@"
tbsg64
I01
sg65
g61
(g62
(I0
tS'b'
tRp552
(I1
(I3
tg67
I00
S'\x01\x01\x01'
tbsg68
I00
sbag8
(g12
g13
NtRp553
(dp554
g16
g541
sg60
g61
(g62
(I0
tS'b'
tRp555
(I1
(I3
tg6
I00
S't\xc9\x06\x02\xbb\x18(@\xf6 \x13\x15"\x04\xf9?.\n7\xef\xb4\xe6M@'
tbsg64
I01
sg65
g61
(g62
(I0
tS'b'
tRp556
(I1
(I3
tg67
I00
S'\x01\x01\x01'
tbsg68
I00
sbag8
(g12
g13
NtRp557
(dp558
g16
g541
sg60
g61
(g62
(I0
tS'b'
tRp559
(I1
(I3
tg6
I00
S'.\xb8[\x00gS)@\x81O\xf7Jl\xf2\xd2\xbf\xee\xee\xe4l\x8d\xbbJ@'
tbsg64
I01
sg65
g61
(g62
(I0
tS'b'
tRp560
(I1
(I3
tg67
I00
S'\x01\x01\x01'
tbsg68
I00
sbag8
(g12
g13
NtRp561
(dp562
g16
g541
sg60
g61
(g62
(I0
tS'b'
tRp563
(I1
(I3
tg6
I00
S'\xeb/\x9bv\xeb\x9b*@>\xd3\x11\xc2S\x81\xd0?\x14\xa7\xfa\xfa\xfc\xaeK@'
tbsg64
I01
sg65
g61
(g62
(I0
tS'b'
tRp564
(I1
(I3
tg67
I00
S'\x01\x01\x01'
tbsg68
I00
sbag8
(g12
g13
NtRp565
(dp566
g16
g541
sg60
g61
(g62
(I0
tS'b'
tRp567
(I1
(I3
tg6
I00
S'/a\xdc\x90\x9f\xda+@\x9c\xb0\x0c\x1e\xb8_\xc0\xbf\xe6\xe3\xf0C3\x85G@'
tbsg64
I01
sg65
g61
(g62
(I0
tS'b'
tRp568
(I1
(I3
tg67
I00
S'\x01\x01\x01'
tbsg68
I00
sbag8
(g12
g13
NtRp569
(dp570
g16
g541
sg60
g61
(g62
(I0
tS'b'
tRp571
(I1
(I3
tg6
I00
S"6\x8fC\xff\x10\x07-@'{q\x91?w\xda\xbf>%B?Y\x0fO@"
tbsg64
I01
sg65
g61
(g62
(I0
tS'b'
tRp572
(I1
(I3
tg67
I00
S'\x01\x01\x01'
tbsg68
I00
sbag8
(g12
g13
NtRp573
(dp574
g16
g541
sg60
g61
(g62
(I0
tS'b'
tRp575
(I1
(I3
tg6
I00
S'\xcdW\xe9\x93\xbfv.@\xeb\x9cL\xb8\xb7\xd1\xed?\xdd\x97\x99/\r\xe9c@'
tbsg64
I01
sg65
g61
(g62
(I0
tS'b'
tRp576
(I1
(I3
tg67
I00
S'\x01\x01\x01'
tbsg68
I00
sbatRp577
a(dp578
g60
g61
(g62
(I0
tS'b'
tRp579
(I1
(I2
tg6
I00
S"\x89>\xd8\xf8XU\xe0\xbf\xec\x01'\xa1\xea7\x81?"
tbsg64
I00
sg65
g61
(g62
(I0
tS'b'
tRp580
(I1
(I2
tg67
I00
S'\x01\x01'
tbsg68
I00
sag4
(g6
S'\x00\xec{\xf3\xe9\xce\xba?'
tRp581
aa(lp582
g4
(g6
S'\xd4\xe8-H\x0c\xda\xdb?'
tRp583
ag8
(g9
g10
(lp584
g8
(g12
g13
NtRp585
(dp586
g16
g8
(g17
g13
NtRp587
(dp588
g20
F5
sg21
(dp589
g20
(F5
g23
tp590
sg25
(F30
g23
tp591
sg27
(F4
g23
tp592
ssg27
F4
sg29
I3
sg25
F30
sg30
g32
sg41
g42
sg48
g49
sg53
g54
sbsg60
g61
(g62
(I0
tS'b'
tRp593
(I1
(I3
tg6
I00
S'\x01\xbb\x82\rP\x80&@<\t\xb2 S6\xdd\xbf\xbd\xecc//-A@'
tbsg64
I01
sg65
g61
(g62
(I0
tS'b'
tRp594
(I1
(I3
tg67
I00
S'\x01\x01\x01'
tbsg68
I00
sbag8
(g12
g13
NtRp595
(dp596
g16
g587
sg60
g61
(g62
(I0
tS'b'
tRp597
(I1
(I3
tg6
I00
S"\xf8Q\x1a\x88\xe9\xe9'@\x0c\x87\x02\xcdK\xea\xf0\xbf\xe7`\xca\xf9%u\x10@"
tbsg64
I01
sg65
g61
(g62
(I0
tS'b'
tRp598
(I1
(I3
tg67
I00
S'\x01\x01\x01'
tbsg68
I00
sbag8
(g12
g13
NtRp599
(dp600
g16
g587
sg60
g61
(g62
(I0
tS'b'
tRp601
(I1
(I3
tg6
I00
S's\xc9\x06\x02\xbb\x18(@w7\x13\x15"\x04\xf9?\x93\x0e7\xef\xb4\xe6M@'
tbsg64
I01
sg65
g61
(g62
(I0
tS'b'
tRp602
(I1
(I3
tg67
I00
S'\x01\x01\x01'
tbsg68
I00
sbag8
(g12
g13
NtRp603
(dp604
g16
g587
sg60
g61
(g62
(I0
tS'b'
tRp605
(I1
(I3
tg6
I00
S'/\xb8[\x00gS)@$W\xf7Jl\xf2\xd2\xbf\xa3\xec\xe4l\x8d\xbbJ@'
tbsg64
I01
sg65
g61
(g62
(I0
tS'b'
tRp606
(I1
(I3
tg67
I00
S'\x01\x01\x01'
tbsg68
I00
sbag8
(g12
g13
NtRp607
(dp608
g16
g587
sg60
g61
(g62
(I0
tS'b'
tRp609
(I1
(I3
tg6
I00
S'\xe6/\x9bv\xeb\x9b*@\x88\xdb\x11\xc2S\x81\xd0?U\xa8\xfa\xfa\xfc\xaeK@'
tbsg64
I01
sg65
g61
(g62
(I0
tS'b'
tRp610
(I1
(I3
tg67
I00
S'\x01\x01\x01'
tbsg68
I00
sbag8
(g12
g13
NtRp611
(dp612
g16
g587
sg60
g61
(g62
(I0
tS'b'
tRp613
(I1
(I3
tg6
I00
S'0a\xdc\x90\x9f\xda+@4\xb0\x0c\x1e\xb8_\xc0\xbf\xeb\xe3\xf0C3\x85G@'
tbsg64
I01
sg65
g61
(g62
(I0
tS'b'
tRp614
(I1
(I3
tg67
I00
S'\x01\x01\x01'
tbsg68
I00
sbag8
(g12
g13
NtRp615
(dp616
g16
g587
sg60
g61
(g62
(I0
tS'b'
tRp617
(I1
(I3
tg6
I00
S'7\x8fC\xff\x10\x07-@\x01{q\x91?w\xda\xbfm%B?Y\x0fO@'
tbsg64
I01
sg65
g61
(g62
(I0
tS'b'
tRp618
(I1
(I3
tg67
I00
S'\x01\x01\x01'
tbsg68
I00
sbag8
(g12
g13
NtRp619
(dp620
g16
g587
sg60
g61
(g62
(I0
tS'b'
tRp621
(I1
(I3
tg6
I00
S'\xc6W\xe9\x93\xbfv.@\xad\x97L\xb8\xb7\xd1\xed?\xdd\x96\x99/\r\xe9c@'
tbsg64
I01
sg65
g61
(g62
(I0
tS'b'
tRp622
(I1
(I3
tg67
I00
S'\x01\x01\x01'
tbsg68
I00
sbatRp623
a(dp624
g60
g61
(g62
(I0
tS'b'
tRp625
(I1
(I2
tg6
I00
S"\x89>\xd8\xf8XU\xe0\xbf\xec\x01'\xa1\xea7\x81?"
tbsg64
I00
sg65
g61
(g62
(I0
tS'b'
tRp626
(I1
(I2
tg67
I00
S'\x01\x01'
tbsg68
I00
sag4
(g6
S'\x00\xec{\xf3\xe9\xce\xba?'
tRp627
aa(lp628
g4
(g6
S'\x02zH\xf6\x92-\xdd?'
tRp629
ag8
(g9
g10
(lp630
g8
(g12
g13
NtRp631
(dp632
g16
g8
(g17
g13
NtRp633
(dp634
g20
F5
sg21
(dp635
g20
(F5
g23
tp636
sg25
(F30
g23
tp637
sg27
(F4
g23
tp638
ssg27
F4
sg29
I3
sg25
F30
sg30
g32
sg41
g42
sg48
g49
sg53
g54
sbsg60
g61
(g62
(I0
tS'b'
tRp639
(I1
(I3
tg6
I00
S'\xbcIF\xa5\xc3\x83&@r\xc7f\x1eRb\xdc\xbf\xa6\x8c\x1c\x81QMA@'
tbsg64
I01
sg65
g61
(g62
(I0
tS'b'
tRp640
(I1
(I3
tg67
I00
S'\x01\x01\x01'
tbsg68
I00
sbag8
(g12
g13
NtRp641
(dp642
g16
g633
sg60
g61
(g62
(I0
tS'b'
tRp643
(I1
(I3
tg6
I00
S'[\x11\x8dOv\x04(@\xc25I\xf5\x1e2\xd4?\xae\x9d\xbe\x08\x903K@'
tbsg64
I01
sg65
g61
(g62
(I0
tS'b'
tRp644
(I1
(I3
tg67
I00
S'\x01\x01\x01'
tbsg68
I00
sbag8
(g12
g13
NtRp645
(dp646
g16
g633
sg60
g61
(g62
(I0
tS'b'
tRp647
(I1
(I3
tg6
I00
S'\xcf\xd4\xdcVeM)@\xe6krZz\xc6\xc5\xbf\x970\xaa\xfc\xd19N@'
tbsg64
I01
sg65
g61
(g62
(I0
tS'b'
tRp648
(I1
(I3
tg67
I00
S'\x01\x01\x01'
tbsg68
I00
sbag8
(g12
g13
NtRp649
(dp650
g16
g633
sg60
g61
(g62
(I0
tS'b'
tRp651
(I1
(I3
tg6
I00
S'\xb8\xf4=\xb6\xfc\x9b*@\x99I\x90\xed\xdc\xfc\xb1?\x82|\xb7\x95\x1e\xf0H@'
tbsg64
I01
sg65
g61
(g62
(I0
tS'b'
tRp652
(I1
(I3
tg67
I00
S'\x01\x01\x01'
tbsg68
I00
sbag8
(g12
g13
NtRp653
(dp654
g16
g633
sg60
g61
(g62
(I0
tS'b'
tRp655
(I1
(I3
tg6
I00
S"\xa1\x98}\xeb\xbb\xd6+@|bR/\xfb\xee\xb2\xbf\xc8\x02\x11'\x19\xd4G@"
tbsg64
I01
sg65
g61
(g62
(I0
tS'b'
tRp656
(I1
(I3
tg67
I00
S'\x01\x01\x01'
tbsg68
I00
sbag8
(g12
g13
NtRp657
(dp658
g16
g633
sg60
g61
(g62
(I0
tS'b'
tRp659
(I1
(I3
tg6
I00
S'\xd1\x12\xf5\x95\\\x07-@d\x82\x16\\\x16\xd4\xdb\xbfh\x9bA0\x88\xeeM@'
tbsg64
I01
sg65
g61
(g62
(I0
tS'b'
tRp660
(I1
(I3
tg67
I00
S'\x01\x01\x01'
tbsg68
I00
sbag8
(g12
g13
NtRp661
(dp662
g16
g633
sg60
g61
(g62
(I0
tS'b'
tRp663
(I1
(I3
tg6
I00
S'\xb6C\x1c\xfa\xbfz.@\x9f\x97\xa1cHR\xf0?_\x90\xf0\x1c\xb2\x10d@'
tbsg64
I01
sg65
g61
(g62
(I0
tS'b'
tRp664
(I1
(I3
tg67
I00
S'\x01\x01\x01'
tbsg68
I00
sbatRp665
a(dp666
g60
g61
(g62
(I0
tS'b'
tRp667
(I1
(I2
tg6
I00
S'\xc4\x12+\xe7x\xbe\xdf\xbf3^\xc2\xfe\x1d8\x83?'
tbsg64
I00
sg65
g61
(g62
(I0
tS'b'
tRp668
(I1
(I2
tg67
I00
S'\x01\x01'
tbsg68
I00
sag4
(g6
S'\x00\xec{\xf3\xe9\xce\xba?'
tRp669
aa(lp670
g4
(g6
S'1\x0bc\xa4\x19\x81\xde?'
tRp671
ag8
(g9
g10
(lp672
g8
(g12
g13
NtRp673
(dp674
g16
g8
(g17
g13
NtRp675
(dp676
g20
F5
sg21
(dp677
g20
(F5
g23
tp678
sg25
(F30
g23
tp679
sg27
(F4
g23
tp680
ssg27
F4
sg29
I3
sg25
F30
sg30
g32
sg41
g42
sg48
g49
sg53
g54
sbsg60
g61
(g62
(I0
tS'b'
tRp681
(I1
(I3
tg6
I00
S'\x96\x8ahK\xc2\x83&@F\x88O\x02\xe1[\xdc\xbf\x1bA\x1f\xbc\xe3OA@'
tbsg64
I01
sg65
g61
(g62
(I0
tS'b'
tRp682
(I1
(I3
tg67
I00
S'\x01\x01\x01'
tbsg68
I00
sbag8
(g12
g13
NtRp683
(dp684
g16
g675
sg60
g61
(g62
(I0
tS'b'
tRp685
(I1
(I3
tg6
I00
S'\xaaV\xb2\xb1u\x04(@\xde\x19K0\xab8\xd4?s\xe9_\xc7\x197K@'
tbsg64
I01
sg65
g61
(g62
(I0
tS'b'
tRp686
(I1
(I3
tg67
I00
S'\x01\x01\x01'
tbsg68
I00
sbag8
(g12
g13
NtRp687
(dp688
g16
g675
sg60
g61
(g62
(I0
tS'b'
tRp689
(I1
(I3
tg6
I00
S'\x9f\xe0\xa6\x06fM)@^cypU\xc2\xc5\xbf\xe0\x8e\xcfqK<N@'
tbsg64
I01
sg65
g61
(g62
(I0
tS'b'
tRp690
(I1
(I3
tg67
I00
S'\x01\x01\x01'
tbsg68
I00
sbag8
(g12
g13
NtRp691
(dp692
g16
g675
sg60
g61
(g62
(I0
tS'b'
tRp693
(I1
(I3
tg6
I00
S'V$\xe3\x0f\xfc\x9b*@\xb0\xe6\xb8\xb6\xce\x10\xb2?^O\xd6\x03\xac\xf3H@'
tbsg64
I01
sg65
g61
(g62
(I0
tS'b'
tRp694
(I1
(I3
tg67
I00
S'\x01\x01\x01'
tbsg68
I00
sbag8
(g12
g13
NtRp695
(dp696
g16
g675
sg60
g61
(g62
(I0
tS'b'
tRp697
(I1
(I3
tg6
I00
S'\x1e\xdb\xcc\xcc\xbd\xd6+@\x92!\xd3\xc2,\xdd\xb2\xbf\x81\xeac\xa1\xa4\xd7G@'
tbsg64
I01
sg65
g61
(g62
(I0
tS'b'
tRp698
(I1
(I3
tg67
I00
S'\x01\x01\x01'
tbsg68
I00
sbag8
(g12
g13
NtRp699
(dp700
g16
g675
sg60
g61
(g62
(I0
tS'b'
tRp701
(I1
(I3
tg6
I00
S'\x8eU\x8d\x05]\x07-@J:\xed\xb7r\xd1\xdb\xbf\xdd\xaf\x96\x92\xb4\xf1M@'
tbsg64
I01
sg65
g61
(g62
(I0
tS'b'
tRp702
(I1
(I3
tg67
I00
S'\x01\x01\x01'
tbsg68
I00
sbag8
(g12
g13
NtRp703
(dp704
g16
g675
sg60
g61
(g62
(I0
tS'b'
tRp705
(I1
(I3
tg6
I00
S'O\xe7\xe1\x96\xa8z.@{\x16\xaa-\xf7K\xf0?I\x02\xc3\xca;\x0fd@'
tbsg64
I01
sg65
g61
(g62
(I0
tS'b'
tRp706
(I1
(I3
tg67
I00
S'\x01\x01\x01'
tbsg68
I00
sbatRp707
a(dp708
g60
g61
(g62
(I0
tS'b'
tRp709
(I1
(I2
tg6
I00
S'\xef\x1f:\x8c\xed\xc1\xdf\xbfS|\x8c\xd2F\xc7\x82?'
tbsg64
I00
sg65
g61
(g62
(I0
tS'b'
tRp710
(I1
(I2
tg67
I00
S'\x01\x01'
tbsg68
I00
sag4
(g6
S'\x00\xec{\xf3\xe9\xce\xba?'
tRp711
aa(lp712
g4
(g6
S'`\x9c}R\xa0\xd4\xdf?'
tRp713
ag8
(g9
g10
(lp714
g8
(g12
g13
NtRp715
(dp716
g16
g8
(g17
g13
NtRp717
(dp718
g20
F5
sg21
(dp719
g20
(F5
g23
tp720
sg25
(F30
g23
tp721
sg27
(F4
g23
tp722
ssg27
F4
sg29
I3
sg25
F30
sg30
g32
sg41
g42
sg48
g49
sg53
g54
sbsg60
g61
(g62
(I0
tS'b'
tRp723
(I1
(I3
tg6
I00
S'\x16<\xd4\xce\xc2\x83&@\x86BD\xcdf^\xdc\xbf\x01l\xed\xf8\xe2NA@'
tbsg64
I01
sg65
g61
(g62
(I0
tS'b'
tRp724
(I1
(I3
tg67
I00
S'\x01\x01\x01'
tbsg68
I00
sbag8
(g12
g13
NtRp725
(dp726
g16
g717
sg60
g61
(g62
(I0
tS'b'
tRp727
(I1
(I3
tg6
I00
S'\x99dB\xf0u\x04(@adE\x01\x176\xd4?\x1e*\xd6\xe4\xb75K@'
tbsg64
I01
sg65
g61
(g62
(I0
tS'b'
tRp728
(I1
(I3
tg67
I00
S'\x01\x01\x01'
tbsg68
I00
sbag8
(g12
g13
NtRp729
(dp730
g16
g717
sg60
g61
(g62
(I0
tS'b'
tRp731
(I1
(I3
tg6
I00
S'\x0c<\xd6\xc0eM)@\x8b.\xbeV\xf9\xc3\xc5\xbf^\x80\xcb\xbbS;N@'
tbsg64
I01
sg65
g61
(g62
(I0
tS'b'
tRp732
(I1
(I3
tg67
I00
S'\x01\x01\x01'
tbsg68
I00
sbag8
(g12
g13
NtRp733
(dp734
g16
g717
sg60
g61
(g62
(I0
tS'b'
tRp735
(I1
(I3
tg6
I00
S')`\x9bQ\xfc\x9b*@"\xfd\x9b@\x0c\t\xb2?hu\xcaGI\xf2H@'
tbsg64
I01
sg65
g61
(g62
(I0
tS'b'
tRp736
(I1
(I3
tg67
I00
S'\x01\x01\x01'
tbsg68
I00
sbag8
(g12
g13
NtRp737
(dp738
g16
g717
sg60
g61
(g62
(I0
tS'b'
tRp739
(I1
(I3
tg6
I00
S'\x1a\x0ct\x10\xbd\xd6+@WgS\xfd8\xe4\xb2\xbf\xca\xc9\xc1\xed@\xd6G@'
tbsg64
I01
sg65
g61
(g62
(I0
tS'b'
tRp740
(I1
(I3
tg67
I00
S'\x01\x01\x01'
tbsg68
I00
sbag8
(g12
g13
NtRp741
(dp742
g16
g717
sg60
g61
(g62
(I0
tS'b'
tRp743
(I1
(I3
tg6
I00
S'X\x8f\xaa\xe0\\\x07-@\x10\xb2n]w\xd2\xdb\xbf\xfb\xa0\xd5r{\xf0M@'
tbsg64
I01
sg65
g61
(g62
(I0
tS'b'
tRp744
(I1
(I3
tg67
I00
S'\x01\x01\x01'
tbsg68
I00
sbag8
(g12
g13
NtRp745
(dp746
g16
g717
sg60
g61
(g62
(I0
tS'b'
tRp747
(I1
(I3
tg6
I00
S'\x99j\x8e\xf2\xb0z.@\x9c\x98\x1aV(N\xf0?\xdc\xa5\xe9O\xb3\x0fd@'
tbsg64
I01
sg65
g61
(g62
(I0
tS'b'
tRp748
(I1
(I3
tg67
I00
S'\x01\x01\x01'
tbsg68
I00
sbatRp749
a(dp750
g60
g61
(g62
(I0
tS'b'
tRp751
(I1
(I2
tg6
I00
S'\xcd\xcdz\xa0\x8f\xc0\xdf\xbf<\x8b\xe7B\x02\xee\x82?'
tbsg64
I00
sg65
g61
(g62
(I0
tS'b'
tRp752
(I1
(I2
tg67
I00
S'\x01\x01'
tbsg68
I00
sag4
(g6
S'\x00\xec{\xf3\xe9\xce\xba?'
tRp753
aaaS"History written: Wed Jul  1 09:54:31 2015\nproduced by luke\ndiffpy.srmise version 0.5.2\n##### PDF Peak Extraction\n## BaselineFunctions\n# BaselineFunction 0\nfunction='Polynomial'\nmodule='diffpy.srmise.baselines.polynomial'\nbase=None\ndegree=1\n\n## PeakFunctions\n# PeakFunction 0\nfunction='GaussianOverR'\nmodule='diffpy.srmise.peaks.gaussianoverr'\nbase=None\nmaxwidth=0.7\n\n# PeakFunction 1\nfunction='TerminationRipples'\nmodule='diffpy.srmise.peaks.terminationripples'\nbase=0\nsupersample=5.0\nqmax=30.0\nextension=4.0\n\n# BaselineObject\nowner=0\npars=[-0.51041840174180308, 0.0084074335508157114]\nfree=[True, True]\nremovable=False\nstatic_owner=False\n\n## InitialPeaks\n# SrMiseMetadata\npf=[0]\ncres=0.10472\nModelEvaluator=AIC\nRange=[10.9, 15]\n# Metadata\nfilename='/home/luke/Workspaces/MSU_Research/diffpy.srmise/doc/examples/data/Ag_nyquist_qmax30.gr'\nnyquist=True\nqmax=30.0\nqmax_reportedbypdf=30.0\nqmax_fromdata=29.729728241905356\nscale=False\nsupersample=4.0\n\n##### start data\n#L x y dx dy edy\n0.10472 -0.848217 0 0.276527 0.497353\n0.20944 -0.438975 0 0.375888 0.497353\n0.314159 -0.0724599 0 0.399338 0.497353\n0.418879 0.0701041 0 0.406243 0.497353\n0.523599 0.241004 0 0.40927 0.497353\n0.628319 -1.08142 0 0.410872 0.497353\n0.733038 -0.730527 0 0.411821 0.497353\n0.837758 -0.789248 0 0.412439 0.497353\n0.942478 -0.479976 0 0.412843 0.497353\n1.0472 -0.551525 0 0.413149 0.497353\n1.15192 -0.52763 0 0.413394 0.497353\n1.25664 -0.478534 0 0.41357 0.497353\n1.36136 -0.745365 0 0.41365 0.497353\n1.46608 -0.851118 0 0.414021 0.497353\n1.5708 -0.850263 0 0.413873 0.497353\n1.67552 -0.859146 0 0.413961 0.497353\n1.78024 -0.944151 0 0.414016 0.497353\n1.88496 -0.957457 0 0.414068 0.497353\n1.98968 -0.942436 0 0.414069 0.497353\n2.0944 -1.06201 0 0.414189 0.497353\n2.19911 -0.986944 0 0.41417 0.497353\n2.30383 -1.15517 0 0.414207 0.497353\n2.40855 -0.998036 0 0.4142 0.497353\n2.51327 -1.07553 0 0.414251 0.497353\n2.61799 -0.660581 0 0.414287 0.497353\n2.72271 2.09696 0 0.414276 0.497353\n2.82743 8.65415 0 0.414235 0.497353\n2.93215 9.77508 0 0.414368 0.497353\n3.03687 3.94327 0 0.414316 0.497353\n3.14159 -0.251454 0 0.414294 0.497353\n3.24631 -1.59266 0 0.414334 0.497353\n3.35103 -1.87634 0 0.414372 0.497353\n3.45575 -2.07954 0 0.414336 0.497353\n3.56047 -2.09388 0 0.414361 0.497353\n3.66519 -2.13669 0 0.414378 0.497353\n3.76991 -1.95955 0 0.414216 0.497353\n3.87463 -1.37209 0 0.414521 0.497353\n3.97935 -0.0329757 0 0.41436 0.497353\n4.08407 1.10031 0 0.414367 0.497353\n4.18879 0.469554 0 0.414408 0.497353\n4.29351 -1.15114 0 0.414303 0.497353\n4.39823 -2.15357 0 0.414507 0.497353\n4.50295 -2.41179 0 0.414366 0.497353\n4.60767 -2.41213 0 0.414445 0.497353\n4.71239 -1.88485 0 0.414396 0.497353\n4.81711 0.46476 0 0.414419 0.497353\n4.92183 5.56323 0 0.41442 0.497353\n5.02655 8.65254 0 0.414425 0.497353\n5.13127 5.24024 0 0.41438 0.497353\n5.23599 0.0409454 0 0.414433 0.497353\n5.34071 -2.48627 0 0.41447 0.497353\n5.44543 -3.02423 0 0.414428 0.497353\n5.55015 -2.60297 0 0.414347 0.497353\n5.65487 -0.84228 0 0.414496 0.497353\n5.75959 1.18901 0 0.414408 0.497353\n5.86431 0.894119 0 0.41444 0.497353\n5.96903 -1.28837 0 0.414399 0.497353\n6.07375 -2.72173 0 0.414454 0.497353\n6.17847 -2.7103 0 0.414469 0.497353\n6.28318 -0.941738 0 0.414354 0.497353\n6.3879 2.42598 0 0.414536 0.497353\n6.49263 4.33279 0 0.414436 0.497353\n6.59734 2.21093 0 0.41439 0.497353\n6.70207 -1.306 0 0.414491 0.497353\n6.80678 -3.03265 0 0.414432 0.497353\n6.9115 -2.90582 0 0.414391 0.497353\n7.01622 -1.87167 0 0.41448 0.497353\n7.12094 -1.23044 0 0.414423 0.497353\n7.22566 -1.92941 0 0.414359 0.497353\n7.33038 -2.5179 0 0.414509 0.497353\n7.4351 -0.969886 0 0.41442 0.497353\n7.53982 3.96972 0 0.414436 0.497353\n7.64454 8.8855 0 0.41445 0.497353\n7.74926 7.4236 0 0.414469 0.497353\n7.85398 1.53836 0 0.414469 0.497353\n7.9587 -2.44643 0 0.414443 0.497353\n8.06342 -3.26112 0 0.414411 0.497353\n8.16814 -2.94882 0 0.414522 0.497353\n8.27286 -2.90904 0 0.41438 0.497353\n8.37758 -3.05689 0 0.414496 0.497353\n8.4823 -1.78758 0 0.414444 0.497353\n8.58702 1.38353 0 0.414446 0.497353\n8.69174 3.94127 0 0.41445 0.497353\n8.79646 2.45676 0 0.414399 0.497353\n8.90118 -0.591625 0 0.414515 0.497353\n9.0059 -1.30696 0 0.414422 0.497353\n9.11062 0.12014 0 0.414465 0.497353\n9.21534 0.431331 0 0.414439 0.497353\n9.32006 -1.16176 0 0.414455 0.497353\n9.42478 -1.8613 0 0.41443 0.497353\n9.5295 -0.544258 0 0.414482 0.497353\n9.63422 0.450605 0 0.414444 0.497353\n9.73894 -0.669103 0 0.414465 0.497353\n9.84366 -1.7389 0 0.414464 0.497353\n9.94838 -0.816268 0 0.414442 0.497353\n10.0531 0.290376 0 0.414455 0.497353\n10.1578 0.0115737 0 0.414453 0.497353\n10.2625 1.15071 0 0.414487 0.497353\n10.3673 5.36598 0 0.414456 0.497353\n10.472 7.70779 0 0.414461 0.497353\n10.5767 4.12092 0 0.414484 0.497353\n10.6814 -1.35374 0 0.414425 0.497353\n10.7861 -4.23359 0 0.414497 0.497353\n10.8909 -4.71367 0 0.414424 0.497353\n10.9956 -3.61547 0 0.414463 0.497353\n11.1003 -0.719766 0 0.414456 0.497353\n11.205 2.04711 0 0.414463 0.497353\n11.3097 1.71502 0 0.414441 0.497353\n11.4145 -0.861729 0 0.414477 0.497353\n11.5192 -2.49413 0 0.414453 0.497353\n11.6239 -2.74042 0 0.414485 0.497353\n11.7286 -2.25884 0 0.414466 0.497353\n11.8333 -0.265838 0 0.414432 0.497353\n11.9381 1.90138 0 0.414504 0.497353\n12.0428 1.58808 0 0.414449 0.497353\n12.1475 0.0070566 0 0.414473 0.497353\n12.2522 -0.295937 0 0.414475 0.497353\n12.3569 0.0151809 0 0.414424 0.497353\n12.4617 0.90539 0 0.414498 0.497353\n12.5664 3.2162 0 0.414433 0.497353\n12.6711 4.236 0 0.414449 0.497353\n12.7758 1.95719 0 0.414468 0.497353\n12.8805 -0.763835 0 0.414439 0.497353\n12.9853 -1.66267 0 0.414462 0.497353\n13.09 -1.55113 0 0.414458 0.497353\n13.1947 -0.362846 0 0.414474 0.497353\n13.2994 0.530654 0 0.414469 0.497353\n13.4041 -0.240443 0 0.414474 0.497353\n13.5089 -1.58126 0 0.414444 0.497353\n13.6136 -1.90816 0 0.414468 0.497353\n13.7183 -1.58124 0 0.41445 0.497353\n13.823 -0.47036 0 0.414455 0.497353\n13.9277 0.0528224 0 0.414455 0.497353\n14.0325 -1.06936 0 0.414474 0.497353\n14.1372 -2.69992 0 0.41446 0.497353\n14.2419 -2.63203 0 0.41443 0.497353\n14.3466 -0.307332 0 0.414487 0.497353\n14.4513 2.93352 0 0.414453 0.497353\n14.5561 3.69013 0 0.414472 0.497353\n14.6608 1.35399 0 0.414434 0.497353\n14.7655 -0.4856 0 0.414482 0.497353\n14.8702 -0.000276016 0 0.414449 0.497353\n14.9749 2.48563 0 0.414464 0.497353\n15.0797 4.27674 0 0.414459 0.497353\n15.1844 3.33366 0 0.41448 0.497353\n15.2891 1.21759 0 0.414457 0.497353\n15.3938 -0.37143 0 0.414471 0.497353\n15.4985 -1.80234 0 0.414452 0.497353\n15.6032 -2.85825 0 0.414473 0.497353\n15.708 -3.70676 0 0.414457 0.497353\n15.8127 -4.2802 0 0.414474 0.497353\n15.9174 -3.47037 0 0.414451 0.497353\n16.0221 -0.522252 0 0.414455 0.497353\n16.1268 2.43719 0 0.414459 0.497353\n16.2316 2.03817 0 0.414473 0.497353\n16.3363 -0.703543 0 0.414468 0.497353\n16.441 -1.77019 0 0.41448 0.497353\n16.5457 0.231127 0 0.414477 0.497353\n16.6504 2.64325 0 0.414463 0.497353\n16.7552 2.8064 0 0.414479 0.497353\n16.8599 1.24821 0 0.414472 0.497353\n16.9646 0.147782 0 0.414471 0.497353\n17.0693 -0.285568 0 0.414463 0.497353\n17.174 -0.467344 0 0.414472 0.497353\n17.2788 -0.778432 0 0.414461 0.497353\n17.3835 -0.588839 0 0.414454 0.497353\n17.4882 0.996117 0 0.414463 0.497353\n17.5929 3.103 0 0.414464 0.497353\n17.6976 3.11809 0 0.414474 0.497353\n17.8024 0.614726 0 0.414465 0.497353\n17.9071 -1.62203 0 0.414465 0.497353\n18.0118 -2.07547 0 0.41448 0.497353\n18.1165 -1.83835 0 0.414466 0.497353\n18.2212 -2.03303 0 0.414484 0.497353\n18.326 -2.36859 0 0.414472 0.497353\n18.4307 -2.10356 0 0.414457 0.497353\n18.5354 -1.36772 0 0.414466 0.497353\n18.6401 -0.713728 0 0.414465 0.497353\n18.7448 -0.0613967 0 0.414472 0.497353\n18.8496 1.14241 0 0.41448 0.497353\n18.9543 2.73659 0 0.414472 0.497353\n19.059 2.89613 0 0.414476 0.497353\n19.1637 1.20826 0 0.414465 0.497353\n19.2684 0.137683 0 0.414472 0.497353\n19.3732 1.07538 0 0.414477 0.497353\n19.4779 1.56895 0 0.414466 0.497353\n19.5826 -0.10718 0 0.414469 0.497353\n19.6873 -1.77146 0 0.414461 0.497353\n19.792 -1.19471 0 0.414458 0.497353\n19.8968 0.0394425 0 0.414477 0.497353\n20.0015 -0.209379 0 0.414475 0.497353\n20.1062 -0.746729 0 0.414462 0.497353\n20.2109 0.0585856 0 0.41447 0.497353\n20.3156 0.860572 0 0.414472 0.497353\n20.4203 0.243239 0 0.414467 0.497353\n20.5251 -1.16833 0 0.41447 0.497353\n20.6298 -1.58629 0 0.414473 0.497353\n20.7345 -1.08777 0 0.414483 0.497353\n20.8392 -0.300338 0 0.414478 0.497353\n20.944 0.29465 0 0.414476 0.497353\n21.0487 0.425193 0 0.414469 0.497353\n21.1534 -0.00136946 0 0.414465 0.497353\n21.2581 -0.393033 0 0.414473 0.497353\n21.3628 0.387682 0 0.414463 0.497353\n21.4675 1.6689 0 0.414463 0.497353\n21.5723 1.4581 0 0.414459 0.497353\n21.677 -0.361992 0 0.414462 0.497353\n21.7817 -1.00177 0 0.414469 0.497353\n21.8864 0.0128308 0 0.414467 0.497353\n21.9912 0.809515 0 0.414477 0.497353\n22.0959 0.672339 0 0.414477 0.497353\n22.2006 0.272683 0 0.414474 0.497353\n22.3053 -0.111194 0 0.41448 0.497353\n22.41 -0.327024 0 0.414476 0.497353\n22.5147 0.0407522 0 0.414467 0.497353\n22.6195 0.533048 0 0.414474 0.497353\n22.7242 0.0614679 0 0.414475 0.497353\n22.8289 -0.830564 0 0.414475 0.497353\n22.9336 -0.355731 0 0.414475 0.497353\n23.0384 0.411435 0 0.414477 0.497353\n23.1431 -0.198643 0 0.414481 0.497353\n23.2478 -1.53097 0 0.414475 0.497353\n23.3525 -1.8586 0 0.41448 0.497353\n23.4572 -1.25444 0 0.41448 0.497353\n23.5619 0.0161056 0 0.414478 0.497353\n23.6667 1.66708 0 0.414479 0.497353\n23.7714 2.42556 0 0.414481 0.497353\n23.8761 1.63544 0 0.41448 0.497353\n23.9808 0.480166 0 0.414483 0.497353\n24.0855 0.0681919 0 0.414479 0.497353\n24.1903 -0.367436 0 0.414473 0.497353\n24.295 -0.985321 0 0.414472 0.497353\n24.3997 -1.42046 0 0.414469 0.497353\n24.5044 -1.35023 0 0.414474 0.497353\n24.6091 -0.437157 0 0.414467 0.497353\n24.7139 1.26422 0 0.414462 0.497353\n24.8186 1.92459 0 0.414465 0.497353\n24.9233 1.10257 0 0.414468 0.497353\n25.028 0.232537 0 0.414472 0.497353\n25.1327 0.313857 0 0.414476 0.497353\n25.2375 0.347515 0 0.41448 0.497353\n25.3422 0.0119498 0 0.414475 0.497353\n25.4469 -0.627585 0 0.414474 0.497353\n25.5516 -1.41904 0 0.414471 0.497353\n25.6563 -1.73891 0 0.414463 0.497353\n25.7611 -1.39368 0 0.414465 0.497353\n25.8658 -0.98749 0 0.414462 0.497353\n25.9705 -0.709065 0 0.414461 0.497353\n26.0752 0.00727748 0 0.414463 0.497353\n26.1799 0.820796 0 0.414465 0.497353\n26.2847 1.28029 0 0.414468 0.497353\n26.3894 1.20257 0 0.414464 0.497353\n26.4941 0.847178 0 0.41447 0.497353\n26.5988 0.532713 0 0.414472 0.497353\n26.7035 0.449797 0 0.414474 0.497353\n26.8083 0.311282 0 0.414476 0.497353\n26.913 -0.0359985 0 0.414474 0.497353\n27.0177 -0.0274541 0 0.414472 0.497353\n27.1224 -0.168312 0 0.414475 0.497353\n27.2271 -0.539714 0 0.414476 0.497353\n27.3319 -0.629106 0 0.414471 0.497353\n27.4366 -0.218378 0 0.414468 0.497353\n27.5413 0.255966 0 0.414467 0.497353\n27.646 0.536293 0 0.414469 0.497353\n27.7507 0.399817 0 0.414473 0.497353\n27.8555 0.11408 0 0.414476 0.497353\n27.9602 -0.17124 0 0.414475 0.497353\n28.0649 -0.82576 0 0.414473 0.497353\n28.1696 -1.63377 0 0.414469 0.497353\n28.2743 -1.91638 0 0.41447 0.497353\n28.379 -1.1421 0 0.414474 0.497353\n28.4838 0.377505 0 0.414475 0.497353\n28.5885 1.61749 0 0.414476 0.497353\n28.6932 1.60999 0 0.414476 0.497353\n28.7979 0.924994 0 0.414476 0.497353\n28.9027 0.539661 0 0.414475 0.497353\n29.0074 0.273788 0 0.414475 0.497353\n29.1121 -0.140046 0 0.41447 0.497353\n29.2168 -0.202034 0 0.414471 0.497353\n29.3215 0.433365 0 0.414469 0.497353\n29.4262 1.13571 0 0.414469 0.497353\n29.531 0.836727 0 0.414468 0.497353\n29.6357 -0.101336 0 0.414469 0.497353\n29.7404 -0.669691 0 0.41447 0.497353\n29.8451 -0.721992 0 0.414471 0.497353\n29.9499 -0.766688 0 0.414472 0.497353\n30.0546 -0.547158 0 0.414473 0.497353\n30.1593 -0.308248 0 0.414473 0.497353\n30.264 -0.255524 0 0.414473 0.497353\n30.3687 -0.551494 0 0.414474 0.497353\n30.4734 -0.636365 0 0.414471 0.497353\n30.5782 -0.34684 0 0.41447 0.497353\n30.6829 -0.16534 0 0.414469 0.497353\n30.7876 -0.175003 0 0.414473 0.497353\n30.8923 0.0582915 0 0.414478 0.497353\n30.9971 0.617427 0 0.414476 0.497353\n31.1018 1.14323 0 0.414472 0.497353\n31.2065 1.20366 0 0.414469 0.497353\n31.3112 1.01078 0 0.414467 0.497353\n31.4159 0.829863 0 0.414469 0.497353\n31.5206 0.342908 0 0.414471 0.497353\n31.6254 -0.438775 0 0.414473 0.497353\n31.7301 -0.98495 0 0.414474 0.497353\n31.8348 -0.949941 0 0.414473 0.497353\n31.9395 -0.536897 0 0.414469 0.497353\n32.0442 -0.098742 0 0.414469 0.497353\n32.149 0.198955 0 0.414469 0.497353\n32.2537 0.26835 0 0.414467 0.497353\n32.3584 0.158842 0 0.414467 0.497353\n32.4631 -0.217961 0 0.414468 0.497353\n32.5678 -0.359842 0 0.414469 0.497353\n32.6726 -0.400725 0 0.414469 0.497353\n32.7773 -0.388053 0 0.414472 0.497353\n32.882 -0.53186 0 0.414471 0.497353\n32.9867 -0.452224 0 0.414473 0.497353\n33.0914 -0.258411 0 0.414473 0.497353\n33.1962 -0.0783268 0 0.414472 0.497353\n33.3009 0.34702 0 0.414477 0.497353\n33.4056 0.813758 0 0.414477 0.497353\n33.5103 0.942157 0 0.414473 0.497353\n33.615 0.668602 0 0.414472 0.497353\n33.7198 0.416251 0 0.414469 0.497353\n33.8245 0.213257 0 0.414464 0.497353\n33.9292 0.128913 0 0.414463 0.497353\n34.0339 0.101085 0 0.414462 0.497353\n34.1386 0.126261 0 0.414463 0.497353\n34.2434 -0.088243 0 0.414466 0.497353\n34.3481 -0.505281 0 0.414463 0.497353\n34.4528 -0.865457 0 0.414461 0.497353\n34.5575 -0.931427 0 0.414465 0.497353\n34.6622 -0.677627 0 0.414469 0.497353\n34.767 -0.219618 0 0.414472 0.497353\n34.8717 0.262265 0 0.414475 0.497353\n34.9764 0.497295 0 0.414474 0.497353\n##### Results\nextraction_type='extract'\n### ModelCluster\npeak_funcs=[0]\nModelEvaluator=AIC\nslice=slice(None, 40, None)\n# BaselineObject\nowner=0\npars=[-0.49612799331518148, 0.009243028322946871]\nfree=[True, True]\nremovable=False\nstatic_owner=False\n\n## ModelPeaks\n# ModelPeak\nowner=1\npars=[11.257345641524847, -0.44326181455202407, 34.616301647118242]\nfree=[True, True, True]\nremovable=True\nstatic_owner=False\n\n# ModelPeak\nowner=1\npars=[12.008712299446687, 0.31580138324858892, 54.419674496243019]\nfree=[True, True, True]\nremovable=True\nstatic_owner=False\n\n# ModelPeak\nowner=1\npars=[12.65116694083374, -0.17004315124028255, 60.463492845884261]\nfree=[True, True, True]\nremovable=True\nstatic_owner=False\n\n# ModelPeak\nowner=1\npars=[13.304659414498092, 0.070450559400331986, 49.892861341339824]\nfree=[True, True, True]\nremovable=True\nstatic_owner=False\n\n# ModelPeak\nowner=1\npars=[13.919411195913245, -0.073794900748365463, 47.673856467841304]\nfree=[True, True, True]\nremovable=True\nstatic_owner=False\n\n# ModelPeak\nowner=1\npars=[14.51438047487288, -0.43472084163912061, 59.87876735144706]\nfree=[True, True, True]\nremovable=True\nstatic_owner=False\n\n# ModelPeak\nowner=1\npars=[15.239631252178969, 1.0190814364846466, 160.4906386912761]\nfree=[True, True, True]\nremovable=True\nstatic_owner=False\n\n### start data\n#L r y dy\n10.9 -4.68486 0.497353\n11.0047 -3.42823 0.497353\n11.1094 -0.423569 0.497353\n11.2142 2.16651 0.497353\n11.3189 1.53018 0.497353\n11.4236 -1.07332 0.497353\n11.5283 -2.55496 0.497353\n11.633 -2.73133 0.497353\n11.7378 -2.15436 0.497353\n11.8425 -0.03493 0.497353\n11.9472 1.98801 0.497353\n12.0519 1.45359 0.497353\n12.1566 -0.0851001 0.497353\n12.2614 -0.26845 0.497353\n12.3661 0.0438283 0.497353\n12.4708 1.06552 0.497353\n12.5755 3.41162 0.497353\n12.6802 4.16027 0.497353\n12.785 1.67277 0.497353\n12.8897 -0.907877 0.497353\n12.9944 -1.68923 0.497353\n13.0991 -1.48603 0.497353\n13.2038 -0.242317 0.497353\n13.3086 0.533857 0.497353\n13.4133 -0.369666 0.497353\n13.518 -1.6523 0.497353\n13.6227 -1.90302 0.497353\n13.7274 -1.51247 0.497353\n13.8322 -0.37046 0.497353\n13.9369 0.0173898 0.497353\n14.0416 -1.22208 0.497353\n14.1463 -2.78774 0.497353\n14.251 -2.51037 0.497353\n14.3558 -0.0255009 0.497353\n14.4605 3.15137 0.497353\n14.5652 3.56679 0.497353\n14.6699 1.12682 0.497353\n14.7746 -0.544585 0.497353\n14.8794 0.160077 0.497353\n14.9841 2.71941 0.497353\n\n"
p754
a.
