(lp1
(lp2
(lp3
cnumpy.core.multiarray
scalar
p4
(cnumpy
dtype
p5
(S'f8'
I0
I1
tRp6
(I3
S'<'
NNNI-1
I-1
I0
tbS'\x8f\xc2\xf5(\\5\x92@'
tRp7
accopy_reg
_reconstructor
p8
(cdiffpy.srmise.mise.peaks.base
Peaks
p9
c__builtin__
list
p10
(lp11
g8
(cdiffpy.srmise.mise.peaks.base
Peak
p12
c__builtin__
object
p13
NtRp14
(dp15
S'_owner'
p16
g8
(cdiffpy.srmise.mise.peaks.terminationripples
TerminationRipples
p17
g13
NtRp18
(dp19
S'supersample'
p20
F5
sS'metadict'
p21
(dp22
g20
(F5
c__builtin__
repr
p23
tp24
sS'qmax'
p25
(F20.755266780473114
g23
tp26
sS'extension'
p27
(F4
g23
tp28
ssg27
F4
sS'npars'
p29
I3
sg25
F20.755266780473114
sS'base'
p30
g8
(cdiffpy.srmise.mise.peaks.gaussianoverr
GaussianOverR
p31
g13
NtRp32
(dp33
g21
(dp34
S'maxwidth'
p35
(F0.69999999999999996
g23
tp36
ssg35
F0.69999999999999996
sg29
I3
sS'sigma2fwhm'
p37
g4
(g6
S'C\xfcJ\xe4\xab\xd6\x02@'
tRp38
sS'c3'
p39
g4
(g6
S'\x1d\x0b\xc2\x91\x0e\x08\xf1?'
tRp40
sg30
NsS'parformats'
p41
(lp42
S'internal'
p43
aS'pwa'
p44
aS'mu_sigma_area'
p45
asS'c2'
p46
g4
(g6
S'~\x85%\xe3\x17\x9f\xb6?'
tRp47
sS'parameterdict'
p48
(dp49
S'position'
p50
I0
sS'area'
p51
I2
sS'width'
p52
I1
ssS'default_formats'
p53
(dp54
S'default_output'
p55
g44
sS'default_input'
p56
g43
ssS'c1'
p57
g4
(g6
S'J\xf1$s<\xdc\xe0?'
tRp58
sS'c4'
p59
F2.2439947525641379
sbsg41
g42
sg48
g49
sg53
g54
sbsS'pars'
p60
cnumpy.core.multiarray
_reconstruct
p61
(cnumpy
ndarray
p62
(I0
tS'b'
tRp63
(I1
(I3
tg6
I00
S'q\x87\xed2\x93\xd1\xf5?\xb4\x9b|\x9f\xf4\\\xf5\xbf\xe7\xffl\x11\x84\x90\xc8@'
tbsS'removable'
p64
I01
sS'free'
p65
g61
(g62
(I0
tS'b'
tRp66
(I1
(I3
tg5
(S'b1'
I0
I1
tRp67
(I3
S'|'
NNNI-1
I-1
I0
tbI00
S'\x01\x01\x01'
tbsS'static_owner'
p68
I00
sbag8
(g12
g13
NtRp69
(dp70
g16
g18
sg60
g61
(g62
(I0
tS'b'
tRp71
(I1
(I3
tg6
I00
S'$\x99\xc1\xbd)\xb3\xf7?\x14\xc4n|\xd0+\xf7\xbf\xba\xcaB\xef\x17k\xd5@'
tbsg64
I01
sg65
g61
(g62
(I0
tS'b'
tRp72
(I1
(I3
tg67
I00
S'\x01\x01\x01'
tbsg68
I00
sbag8
(g12
g13
NtRp73
(dp74
g16
g18
sg60
g61
(g62
(I0
tS'b'
tRp75
(I1
(I3
tg6
I00
S'{\xab\x9bz%\xf5\xf7?\xaf\x03\x94\t2D\xf8\xbf\x1e\xb4\xba\xd9\x9b\xe9\xe3@'
tbsg64
I01
sg65
g61
(g62
(I0
tS'b'
tRp76
(I1
(I3
tg67
I00
S'\x01\x01\x01'
tbsg68
I00
sbag8
(g12
g13
NtRp77
(dp78
g16
g18
sg60
g61
(g62
(I0
tS'b'
tRp79
(I1
(I3
tg6
I00
S'\xfd\x8cq,\x12\xd9\xfd?\x85J\x18\xccG\x8d\xf7\xbfr\xb6\x00n\x9d\x85\xb4@'
tbsg64
I01
sg65
g61
(g62
(I0
tS'b'
tRp80
(I1
(I3
tg67
I00
S'\x01\x01\x01'
tbsg68
I00
sbag8
(g12
g13
NtRp81
(dp82
g16
g18
sg60
g61
(g62
(I0
tS'b'
tRp83
(I1
(I3
tg6
I00
S'\x8a\x8f\x94\xfa)-\x02@\x82\xbb\x13c\xf0\xfe\xf6\xbf\xa5\x8d\xdf\xdc\x04y\xd0@'
tbsg64
I01
sg65
g61
(g62
(I0
tS'b'
tRp84
(I1
(I3
tg67
I00
S'\x01\x01\x01'
tbsg68
I00
sbag8
(g12
g13
NtRp85
(dp86
g16
g18
sg60
g61
(g62
(I0
tS'b'
tRp87
(I1
(I3
tg6
I00
S'(\x13K\xa9;\x90\x03@[9\xe8\xaa\xd7\x07\xf7\xbf\x8a\xea\xf2V\xa3\xa1\xeb@'
tbsg64
I01
sg65
g61
(g62
(I0
tS'b'
tRp88
(I1
(I3
tg67
I00
S'\x01\x01\x01'
tbsg68
I00
sbag8
(g12
g13
NtRp89
(dp90
g16
g18
sg60
g61
(g62
(I0
tS'b'
tRp91
(I1
(I3
tg6
I00
S'\xae0\x0cR<\xcf\x05@\xebg\x10\x00\x04F\xf7\xbf\x86\xbc\t\x90\x86\x92\xc4@'
tbsg64
I01
sg65
g61
(g62
(I0
tS'b'
tRp92
(I1
(I3
tg67
I00
S'\x01\x01\x01'
tbsg68
I00
sbag8
(g12
g13
NtRp93
(dp94
g16
g18
sg60
g61
(g62
(I0
tS'b'
tRp95
(I1
(I3
tg6
I00
S'\xcd\xa1h\xe2\xf9-\x07@\xc2)\x10\xe0%c\xf7\xbf\x14\xca\xac\x99Li\xd4@'
tbsg64
I01
sg65
g61
(g62
(I0
tS'b'
tRp96
(I1
(I3
tg67
I00
S'\x01\x01\x01'
tbsg68
I00
sbag8
(g12
g13
NtRp97
(dp98
g16
g18
sg60
g61
(g62
(I0
tS'b'
tRp99
(I1
(I3
tg6
I00
S'\x93\x8b\xd8tk;\x0c@" T%V\xef\xf6\xbf\x8c\xaa\x13&\x10$\xdf@'
tbsg64
I01
sg65
g61
(g62
(I0
tS'b'
tRp100
(I1
(I3
tg67
I00
S'\x01\x01\x01'
tbsg68
I00
sbag8
(g12
g13
NtRp101
(dp102
g16
g18
sg60
g61
(g62
(I0
tS'b'
tRp103
(I1
(I3
tg6
I00
S'\x1b+H\xa6\xeah\r@^\x13\xfa"-J\xf7\xbf\x98\xec+F\x84=\xe9@'
tbsg64
I01
sg65
g61
(g62
(I0
tS'b'
tRp104
(I1
(I3
tg67
I00
S'\x01\x01\x01'
tbsg68
I00
sbag8
(g12
g13
NtRp105
(dp106
g16
g18
sg60
g61
(g62
(I0
tS'b'
tRp107
(I1
(I3
tg6
I00
S'\x8d\x0f\x129\xc5+\x10@\xe44\xd7g\xed<\xf7\xbf\xf4\xe16\x92\x0b\xeb\xe3@'
tbsg64
I01
sg65
g61
(g62
(I0
tS'b'
tRp108
(I1
(I3
tg67
I00
S'\x01\x01\x01'
tbsg68
I00
sbag8
(g12
g13
NtRp109
(dp110
g16
g18
sg60
g61
(g62
(I0
tS'b'
tRp111
(I1
(I3
tg6
I00
S'\x13\x03\x82\xdd\x13\xea\x10@TE[\x91\n\xc3\xf5\xbf\xa2\x9b}\xc1\xc8/\xdd@'
tbsg64
I01
sg65
g61
(g62
(I0
tS'b'
tRp112
(I1
(I3
tg67
I00
S'\x01\x01\x01'
tbsg68
I00
sbag8
(g12
g13
NtRp113
(dp114
g16
g18
sg60
g61
(g62
(I0
tS'b'
tRp115
(I1
(I3
tg6
I00
S'L\xe8J\x11\xdd*\x12@>\xea\xa9K\x11$\xf6\xbf\xb5\xd8\xfd\x00\x811\xf0@'
tbsg64
I01
sg65
g61
(g62
(I0
tS'b'
tRp116
(I1
(I3
tg67
I00
S'\x01\x01\x01'
tbsg68
I00
sbag8
(g12
g13
NtRp117
(dp118
g16
g18
sg60
g61
(g62
(I0
tS'b'
tRp119
(I1
(I3
tg6
I00
S'\xf1\xfc3\xaa\xf6>\x13@\xfa\x8e\x0ew\xc4\x99\xf7\xbf\xd9T8\xbf{\x1c\xda@'
tbsg64
I01
sg65
g61
(g62
(I0
tS'b'
tRp120
(I1
(I3
tg67
I00
S'\x01\x01\x01'
tbsg68
I00
sbag8
(g12
g13
NtRp121
(dp122
g16
g18
sg60
g61
(g62
(I0
tS'b'
tRp123
(I1
(I3
tg6
I00
S'\xff\xaf\xe4\xca\xe2\xb8\x14@B\xa4N\xb7m\xa7\xf6\xbf\xa3\xc1F\xee,h\xdc@'
tbsg64
I01
sg65
g61
(g62
(I0
tS'b'
tRp124
(I1
(I3
tg67
I00
S'\x01\x01\x01'
tbsg68
I00
sbag8
(g12
g13
NtRp125
(dp126
g16
g18
sg60
g61
(g62
(I0
tS'b'
tRp127
(I1
(I3
tg6
I00
S'\xa4)\xdfkv\xc4\x15@\xe0S;\x1dc\r\xf3\xbf\xd3\x96\x11\x05\xe1\\\xf4@'
tbsg64
I01
sg65
g61
(g62
(I0
tS'b'
tRp128
(I1
(I3
tg67
I00
S'\x01\x01\x01'
tbsg68
I00
sbag8
(g12
g13
NtRp129
(dp130
g16
g18
sg60
g61
(g62
(I0
tS'b'
tRp131
(I1
(I3
tg6
I00
S'\x1e\xf7\xe4!\x7f\xe0\x16@\x18*\xcb\xb6f\xb8\xf6\xbf\xf1s\xab\xd7\x813\xe8@'
tbsg64
I01
sg65
g61
(g62
(I0
tS'b'
tRp132
(I1
(I3
tg67
I00
S'\x01\x01\x01'
tbsg68
I00
sbag8
(g12
g13
NtRp133
(dp134
g16
g18
sg60
g61
(g62
(I0
tS'b'
tRp135
(I1
(I3
tg6
I00
S'\x0c\x8c\x02\x7f\xc5C\x18@J\x89NXE\xf2\xe2\xbf\x8f\xb3{\xab\xe2\xed\xfa@'
tbsg64
I01
sg65
g61
(g62
(I0
tS'b'
tRp136
(I1
(I3
tg67
I00
S'\x01\x01\x01'
tbsg68
I00
sbag8
(g12
g13
NtRp137
(dp138
g16
g18
sg60
g61
(g62
(I0
tS'b'
tRp139
(I1
(I3
tg6
I00
S'\xb3\x96B\xb7\x12q\x1a@\xea_I\xc9\x18\xf7\xf6\xbf\xc0\x04\xaf\x8f\xe3\x96\xe0@'
tbsg64
I01
sg65
g61
(g62
(I0
tS'b'
tRp140
(I1
(I3
tg67
I00
S'\x01\x01\x01'
tbsg68
I00
sbag8
(g12
g13
NtRp141
(dp142
g16
g18
sg60
g61
(g62
(I0
tS'b'
tRp143
(I1
(I3
tg6
I00
S"\xe2K\x02<\x17,\x1b@)'\xe7\x1b\xfb\x10\xe5?\xbcU\xfdD_H\x03A"
tbsg64
I01
sg65
g61
(g62
(I0
tS'b'
tRp144
(I1
(I3
tg67
I00
S'\x01\x01\x01'
tbsg68
I00
sbatRp145
a(dp146
g60
g61
(g62
(I0
tS'b'
tRp147
(I1
(I0
tg6
I00
S''
tbsg64
I00
sg65
g61
(g62
(I0
tS'b'
tRp148
(I1
(I0
tg67
I00
S''
tbsg68
I00
sag4
(g6
S'@\x8bl\xe7\xfb\xa9\xba?'
tRp149
aa(lp150
g4
(g6
S'\t}\xc8d_\xd5\x9a@'
tRp151
ag8
(g9
g10
(lp152
g8
(g12
g13
NtRp153
(dp154
g16
g8
(g17
g13
NtRp155
(dp156
g20
F5
sg21
(dp157
g20
(F5
g23
tp158
sg25
(F20.755266780473114
g23
tp159
sg27
(F4
g23
tp160
ssg27
F4
sg29
I3
sg25
F20.755266780473114
sg30
g32
sg41
g42
sg48
g49
sg53
g54
sbsg60
g61
(g62
(I0
tS'b'
tRp161
(I1
(I3
tg6
I00
S'\xe59\x80\xc9|\xe2\xf5?\xafl\x98\xce\xcb\x98\xf6\xbf\x87\xd69a\xb4e\xc7@'
tbsg64
I01
sg65
g61
(g62
(I0
tS'b'
tRp162
(I1
(I3
tg67
I00
S'\x01\x01\x01'
tbsg68
I00
sbag8
(g12
g13
NtRp163
(dp164
g16
g155
sg60
g61
(g62
(I0
tS'b'
tRp165
(I1
(I3
tg6
I00
S'+\x03\xf6\x8f\x99\x9c\xf7?\x87\xd6\xf8\x9f\x98\x01\xf7\xbf\xb3\xc8\xa8\xd9\xae\xa9\xd7@'
tbsg64
I01
sg65
g61
(g62
(I0
tS'b'
tRp166
(I1
(I3
tg67
I00
S'\x01\x01\x01'
tbsg68
I00
sbag8
(g12
g13
NtRp167
(dp168
g16
g155
sg60
g61
(g62
(I0
tS'b'
tRp169
(I1
(I3
tg6
I00
S'\xd0\x03\xbfu\xa7\x80\x03@\x8c\x883qn\x94\xee\xbfq u\x1e\x01\xa4\xf2@'
tbsg64
I01
sg65
g61
(g62
(I0
tS'b'
tRp170
(I1
(I3
tg67
I00
S'\x01\x01\x01'
tbsg68
I00
sbag8
(g12
g13
NtRp171
(dp172
g16
g155
sg60
g61
(g62
(I0
tS'b'
tRp173
(I1
(I3
tg6
I00
S'\x86\x1c==\xf9\xc3\x06@\x97M3L\xfe<\xf7\xbf\xd4#\xfc*\x14\x11\xd3@'
tbsg64
I01
sg65
g61
(g62
(I0
tS'b'
tRp174
(I1
(I3
tg67
I00
S'\x01\x01\x01'
tbsg68
I00
sbag8
(g12
g13
NtRp175
(dp176
g16
g155
sg60
g61
(g62
(I0
tS'b'
tRp177
(I1
(I3
tg6
I00
S'\xd7,\xc8\x95\x01\xe9\x0c@Tn\x8d\xe5\x8f\x1f\xee\xbf\xa4\x16\x08\xa7,O\xf2@'
tbsg64
I01
sg65
g61
(g62
(I0
tS'b'
tRp178
(I1
(I3
tg67
I00
S'\x01\x01\x01'
tbsg68
I00
sbag8
(g12
g13
NtRp179
(dp180
g16
g155
sg60
g61
(g62
(I0
tS'b'
tRp181
(I1
(I3
tg6
I00
S'&J\x8a\n\xa5l\x10@\xa5\r\xee\xa3C\xda\xf0\xbf\x89\xa0la\xd4\x85\xea@'
tbsg64
I01
sg65
g61
(g62
(I0
tS'b'
tRp182
(I1
(I3
tg67
I00
S'\x01\x01\x01'
tbsg68
I00
sbag8
(g12
g13
NtRp183
(dp184
g16
g155
sg60
g61
(g62
(I0
tS'b'
tRp185
(I1
(I3
tg6
I00
S'\xe9N\x0e\xd8\xb2:\x12@D>\x8b\xed\\t\xea\xbf\xd8O\xb6"\xb5\xcd\xf5@'
tbsg64
I01
sg65
g61
(g62
(I0
tS'b'
tRp186
(I1
(I3
tg67
I00
S'\x01\x01\x01'
tbsg68
I00
sbag8
(g12
g13
NtRp187
(dp188
g16
g155
sg60
g61
(g62
(I0
tS'b'
tRp189
(I1
(I3
tg6
I00
S'rg\xc7\xbf\x81\x84\x13@a\xd4\x01\xee\x19\x03\xf8\xbfGF3 \\\x96\xd0@'
tbsg64
I01
sg65
g61
(g62
(I0
tS'b'
tRp190
(I1
(I3
tg67
I00
S'\x01\x01\x01'
tbsg68
I00
sbag8
(g12
g13
NtRp191
(dp192
g16
g155
sg60
g61
(g62
(I0
tS'b'
tRp193
(I1
(I3
tg6
I00
S'\xe7r_\x03\xb1\xc2\x14@c+&\xc0\xe4\x83\xf7\xbf\xa8\x04V\xc5\x90\xa5\xe2@'
tbsg64
I01
sg65
g61
(g62
(I0
tS'b'
tRp194
(I1
(I3
tg67
I00
S'\x01\x01\x01'
tbsg68
I00
sbag8
(g12
g13
NtRp195
(dp196
g16
g155
sg60
g61
(g62
(I0
tS'b'
tRp197
(I1
(I3
tg6
I00
S'7\xbd\xc78.\xd8\x15@\xea"\\z\xecp\xf0\xbf3\xbd\xe6)AX\xf6@'
tbsg64
I01
sg65
g61
(g62
(I0
tS'b'
tRp198
(I1
(I3
tg67
I00
S'\x01\x01\x01'
tbsg68
I00
sbag8
(g12
g13
NtRp199
(dp200
g16
g155
sg60
g61
(g62
(I0
tS'b'
tRp201
(I1
(I3
tg6
I00
S'{\xf4\x8d59\x10\x17@\x80L\x1e\xd5\xff]\xf6\xbf\xb43\xf8h(\x06\xe9@'
tbsg64
I01
sg65
g61
(g62
(I0
tS'b'
tRp202
(I1
(I3
tg67
I00
S'\x01\x01\x01'
tbsg68
I00
sbag8
(g12
g13
NtRp203
(dp204
g16
g155
sg60
g61
(g62
(I0
tS'b'
tRp205
(I1
(I3
tg6
I00
S'\xd7f\xa5\xe2iD\x18@\x00\x12\x1a\x95\xe8\xc6\xef\xbf\xd1\xe3\xc0+\x0b\x96\xf4@'
tbsg64
I01
sg65
g61
(g62
(I0
tS'b'
tRp206
(I1
(I3
tg67
I00
S'\x01\x01\x01'
tbsg68
I00
sbag8
(g12
g13
NtRp207
(dp208
g16
g155
sg60
g61
(g62
(I0
tS'b'
tRp209
(I1
(I3
tg6
I00
S'v\xe6F\x81\x0c0\x19@#G2DE\xf2\xf7\xbf1b\x08\xd9\xd3\xbc\xdd@'
tbsg64
I01
sg65
g61
(g62
(I0
tS'b'
tRp210
(I1
(I3
tg67
I00
S'\x01\x01\x01'
tbsg68
I00
sbag8
(g12
g13
NtRp211
(dp212
g16
g155
sg60
g61
(g62
(I0
tS'b'
tRp213
(I1
(I3
tg6
I00
S'\t\xca\xa7\xe6\x7fo\x1a@\xd9u\xca \x95\t\xf7\xbfFl\xe5\xb1\xef\xa3\xdc@'
tbsg64
I01
sg65
g61
(g62
(I0
tS'b'
tRp214
(I1
(I3
tg67
I00
S'\x01\x01\x01'
tbsg68
I00
sbag8
(g12
g13
NtRp215
(dp216
g16
g155
sg60
g61
(g62
(I0
tS'b'
tRp217
(I1
(I3
tg6
I00
S'\xe3\x17\xe4\xaa\xa0"\x1b@M>\xba\x86\x82\xe3\xdc?\xdb\x1a\xe9?\x08)\x03A'
tbsg64
I01
sg65
g61
(g62
(I0
tS'b'
tRp218
(I1
(I3
tg67
I00
S'\x01\x01\x01'
tbsg68
I00
sbatRp219
a(dp220
g60
g61
(g62
(I0
tS'b'
tRp221
(I1
(I0
tg6
I00
S''
tbsg64
I00
sg65
g61
(g62
(I0
tS'b'
tRp222
(I1
(I0
tg67
I00
S''
tbsg68
I00
sag4
(g6
S'0\xb2\x9d\xef\xa7\xc6\xc1?'
tRp223
aa(lp224
g4
(g6
S'\xc2\x9bMP\xb1\xba\xa1@'
tRp225
ag8
(g9
g10
(lp226
g8
(g12
g13
NtRp227
(dp228
g16
g8
(g17
g13
NtRp229
(dp230
g20
F5
sg21
(dp231
g20
(F5
g23
tp232
sg25
(F20.755266780473114
g23
tp233
sg27
(F4
g23
tp234
ssg27
F4
sg29
I3
sg25
F20.755266780473114
sg30
g32
sg41
g42
sg48
g49
sg53
g54
sbsg60
g61
(g62
(I0
tS'b'
tRp235
(I1
(I3
tg6
I00
S'\x8f\xad\xa7]\xb1\x11\xf6?\x1a\x19\xab\x07Z\xce\xf4\xbf\x99\xfc\x02\x94\xa6\xb1\xcc@'
tbsg64
I01
sg65
g61
(g62
(I0
tS'b'
tRp236
(I1
(I3
tg67
I00
S'\x01\x01\x01'
tbsg68
I00
sbag8
(g12
g13
NtRp237
(dp238
g16
g229
sg60
g61
(g62
(I0
tS'b'
tRp239
(I1
(I3
tg6
I00
S'\xdf\xb2\x04\x0c\x13\xb8\xf7?9\xa0\xb4\x12\xaeb\xf6\xbf&/\xe8u,[\xd5@'
tbsg64
I01
sg65
g61
(g62
(I0
tS'b'
tRp240
(I1
(I3
tg67
I00
S'\x01\x01\x01'
tbsg68
I00
sbag8
(g12
g13
NtRp241
(dp242
g16
g229
sg60
g61
(g62
(I0
tS'b'
tRp243
(I1
(I3
tg6
I00
S'"\xa0C^fx\xfd?E\xc4\x93\xe3\xb5\x19\xf8\xbf\xe65-\xd2\x8b\xf3\x9f@'
tbsg64
I01
sg65
g61
(g62
(I0
tS'b'
tRp244
(I1
(I3
tg67
I00
S'\x01\x01\x01'
tbsg68
I00
sbag8
(g12
g13
NtRp245
(dp246
g16
g229
sg60
g61
(g62
(I0
tS'b'
tRp247
(I1
(I3
tg6
I00
S'\xad\xf0M\xe1\xf6\xbf\x02@;6\x1e\xf7D\xcb\xf1\xbf\xac5lw\x8d\xb3\xdd@'
tbsg64
I01
sg65
g61
(g62
(I0
tS'b'
tRp248
(I1
(I3
tg67
I00
S'\x01\x01\x01'
tbsg68
I00
sbag8
(g12
g13
NtRp249
(dp250
g16
g229
sg60
g61
(g62
(I0
tS'b'
tRp251
(I1
(I3
tg6
I00
S'~\x0e\xf5\xa9<\xd8\x03@\x809P\xcc\xc9\x17\xf7\xbf\xd7Q\xb1e^\xa6\xe8@'
tbsg64
I01
sg65
g61
(g62
(I0
tS'b'
tRp252
(I1
(I3
tg67
I00
S'\x01\x01\x01'
tbsg68
I00
sbag8
(g12
g13
NtRp253
(dp254
g16
g229
sg60
g61
(g62
(I0
tS'b'
tRp255
(I1
(I3
tg6
I00
S'\x91\x99\x82ZT;\x06@\xad\xdaB\xc4&\xd2\xf6\xbf\xf4\x17k\xa0\x9f,\xc8@'
tbsg64
I01
sg65
g61
(g62
(I0
tS'b'
tRp256
(I1
(I3
tg67
I00
S'\x01\x01\x01'
tbsg68
I00
sbag8
(g12
g13
NtRp257
(dp258
g16
g229
sg60
g61
(g62
(I0
tS'b'
tRp259
(I1
(I3
tg6
I00
S'q\x0c\xb7I\x86)\x07@\xb4.\xac\x82\xe3v\xf4\xbf\rh\x8a\xa7\xde\xe6\xc6@'
tbsg64
I01
sg65
g61
(g62
(I0
tS'b'
tRp260
(I1
(I3
tg67
I00
S'\x01\x01\x01'
tbsg68
I00
sbag8
(g12
g13
NtRp261
(dp262
g16
g229
sg60
g61
(g62
(I0
tS'b'
tRp263
(I1
(I3
tg6
I00
S'\x10\xff\x1aB\xf6\x1d\x0c@\x9c\xb0x\xc1\x89\xac\xf6\xbf\xe5\x86t7\x0b\x01\xd9@'
tbsg64
I01
sg65
g61
(g62
(I0
tS'b'
tRp264
(I1
(I3
tg67
I00
S'\x01\x01\x01'
tbsg68
I00
sbag8
(g12
g13
NtRp265
(dp266
g16
g229
sg60
g61
(g62
(I0
tS'b'
tRp267
(I1
(I3
tg6
I00
S'I\xfb\xb5\xbf\x00Q\r@D\xb4/\xf8\x8d\xa0\xf5\xbf\xbd@Q:VN\xe7@'
tbsg64
I01
sg65
g61
(g62
(I0
tS'b'
tRp268
(I1
(I3
tg67
I00
S'\x01\x01\x01'
tbsg68
I00
sbag8
(g12
g13
NtRp269
(dp270
g16
g229
sg60
g61
(g62
(I0
tS'b'
tRp271
(I1
(I3
tg6
I00
S'\x14\xb9kJ\x04$\x10@\x04\xc3\x17/\xbd\x9a\xf6\xbf\xbe_p\xd9\xdf\xfb\xdf@'
tbsg64
I01
sg65
g61
(g62
(I0
tS'b'
tRp272
(I1
(I3
tg67
I00
S'\x01\x01\x01'
tbsg68
I00
sbag8
(g12
g13
NtRp273
(dp274
g16
g229
sg60
g61
(g62
(I0
tS'b'
tRp275
(I1
(I3
tg6
I00
S'\xe2jR19\xe8\x10@W\xb3\xd1\xafz2\xf4\xbf\x8f\xeb\x1c]\xdb\x17\xdf@'
tbsg64
I01
sg65
g61
(g62
(I0
tS'b'
tRp276
(I1
(I3
tg67
I00
S'\x01\x01\x01'
tbsg68
I00
sbag8
(g12
g13
NtRp277
(dp278
g16
g229
sg60
g61
(g62
(I0
tS'b'
tRp279
(I1
(I3
tg6
I00
S'\x0c\xfeFd\x10\x0f\x12@\x04p\\\x82\xb72\xf7\xbf\xa7\xab\xdc\x88\xee\xc1\xc9@'
tbsg64
I01
sg65
g61
(g62
(I0
tS'b'
tRp280
(I1
(I3
tg67
I00
S'\x01\x01\x01'
tbsg68
I00
sbag8
(g12
g13
NtRp281
(dp282
g16
g229
sg60
g61
(g62
(I0
tS'b'
tRp283
(I1
(I3
tg6
I00
S'yL\xcc\x18S5\x12@sH\x15\xf7c$\xf6\xbf\x8d\xf8\xd4j\x12a\xeb@'
tbsg64
I01
sg65
g61
(g62
(I0
tS'b'
tRp284
(I1
(I3
tg67
I00
S'\x01\x01\x01'
tbsg68
I00
sbag8
(g12
g13
NtRp285
(dp286
g16
g229
sg60
g61
(g62
(I0
tS'b'
tRp287
(I1
(I3
tg6
I00
S'\xe4Q@\xf1\x95F\x13@^\xcc\x1d\x1b\xc9\xfa\xf5\xbf\xfa\xba\xfe\xd4S\x0e\xe0@'
tbsg64
I01
sg65
g61
(g62
(I0
tS'b'
tRp288
(I1
(I3
tg67
I00
S'\x01\x01\x01'
tbsg68
I00
sbag8
(g12
g13
NtRp289
(dp290
g16
g229
sg60
g61
(g62
(I0
tS'b'
tRp291
(I1
(I3
tg6
I00
S'\xc8X\xc7\xb9|\xaf\x14@\xa7\x04\\9\xa3\xb5\xf6\xbf%k+\x82\xfb\xaf\xdc@'
tbsg64
I01
sg65
g61
(g62
(I0
tS'b'
tRp292
(I1
(I3
tg67
I00
S'\x01\x01\x01'
tbsg68
I00
sbag8
(g12
g13
NtRp293
(dp294
g16
g229
sg60
g61
(g62
(I0
tS'b'
tRp295
(I1
(I3
tg6
I00
S'\x10\x040"3\xc2\x15@X\xb0.O\x12\x8b\xf3\xbf\x1a\x19\x9c\x16\x8d\x00\xf4@'
tbsg64
I01
sg65
g61
(g62
(I0
tS'b'
tRp296
(I1
(I3
tg67
I00
S'\x01\x01\x01'
tbsg68
I00
sbag8
(g12
g13
NtRp297
(dp298
g16
g229
sg60
g61
(g62
(I0
tS'b'
tRp299
(I1
(I3
tg6
I00
S'\x80\xeb\xbc\x924\xe1\x16@\xd2\xb6\xd5\xa6\xc7\x1a\xf5\xbf\x8d}\xe0\xf3\xf8\x8d\xe8@'
tbsg64
I01
sg65
g61
(g62
(I0
tS'b'
tRp300
(I1
(I3
tg67
I00
S'\x01\x01\x01'
tbsg68
I00
sbag8
(g12
g13
NtRp301
(dp302
g16
g229
sg60
g61
(g62
(I0
tS'b'
tRp303
(I1
(I3
tg6
I00
S'%B\xbc#\x92E\x18@Tk\x19\xd1\x19\x8c\xe3\xbf\x9f\x85\xdf\x1f\x04\x8f\xfa@'
tbsg64
I01
sg65
g61
(g62
(I0
tS'b'
tRp304
(I1
(I3
tg67
I00
S'\x01\x01\x01'
tbsg68
I00
sbag8
(g12
g13
NtRp305
(dp306
g16
g229
sg60
g61
(g62
(I0
tS'b'
tRp307
(I1
(I3
tg6
I00
S'zT\xd5F8v\x1a@\x96\x97\xcb\x7f\x01@\xf6\xbf\xbe\xd7 \xde_<\xe0@'
tbsg64
I01
sg65
g61
(g62
(I0
tS'b'
tRp308
(I1
(I3
tg67
I00
S'\x01\x01\x01'
tbsg68
I00
sbag8
(g12
g13
NtRp309
(dp310
g16
g229
sg60
g61
(g62
(I0
tS'b'
tRp311
(I1
(I3
tg6
I00
S'\x11\xea\xb3`\x88*\x1b@\x01\x0cg\xf0\x14_\xe5?\x9c\xcd\x80\xd7\xbdO\x03A'
tbsg64
I01
sg65
g61
(g62
(I0
tS'b'
tRp312
(I1
(I3
tg67
I00
S'\x01\x01\x01'
tbsg68
I00
sbatRp313
a(dp314
g60
g61
(g62
(I0
tS'b'
tRp315
(I1
(I0
tg6
I00
S''
tbsg64
I00
sg65
g61
(g62
(I0
tS'b'
tRp316
(I1
(I0
tg67
I00
S''
tbsg68
I00
sag4
(g6
S'@\x8bl\xe7\xfb\xa9\xba?'
tRp317
aa(lp318
g4
(g6
S'\xfe\xf86\xee\xb2\n\xa6@'
tRp319
ag8
(g9
g10
(lp320
g8
(g12
g13
NtRp321
(dp322
g16
g8
(g17
g13
NtRp323
(dp324
g20
F5
sg21
(dp325
g20
(F5
g23
tp326
sg25
(F20.755266780473114
g23
tp327
sg27
(F4
g23
tp328
ssg27
F4
sg29
I3
sg25
F20.755266780473114
sg30
g32
sg41
g42
sg48
g49
sg53
g54
sbsg60
g61
(g62
(I0
tS'b'
tRp329
(I1
(I3
tg6
I00
S'C\xb34y\xfa\xc6\xf5?%9\xdd\xc0\x0b\x0f\xf6\xbf\xe5\x87\xd9\xf8\x01W\xc7@'
tbsg64
I01
sg65
g61
(g62
(I0
tS'b'
tRp330
(I1
(I3
tg67
I00
S'\x01\x01\x01'
tbsg68
I00
sbag8
(g12
g13
NtRp331
(dp332
g16
g323
sg60
g61
(g62
(I0
tS'b'
tRp333
(I1
(I3
tg6
I00
S'\x8b\x04-*\\\x96\xf7?\x0b\xf0\x0eJ|e\xf7\xbfv\xcd\x1b\x07l\xb6\xd9@'
tbsg64
I01
sg65
g61
(g62
(I0
tS'b'
tRp334
(I1
(I3
tg67
I00
S'\x01\x01\x01'
tbsg68
I00
sbag8
(g12
g13
NtRp335
(dp336
g16
g323
sg60
g61
(g62
(I0
tS'b'
tRp337
(I1
(I3
tg6
I00
S'e\xdb:\xdf\xd4\\\xfd?\x05.\xffBy\xad\xf7\xbf\x8c8\xa4\xfa\x07\xd1\xb2@'
tbsg64
I01
sg65
g61
(g62
(I0
tS'b'
tRp338
(I1
(I3
tg67
I00
S'\x01\x01\x01'
tbsg68
I00
sbag8
(g12
g13
NtRp339
(dp340
g16
g323
sg60
g61
(g62
(I0
tS'b'
tRp341
(I1
(I3
tg6
I00
S'\x1c\x12\x06\xbeM\x80\x03@\x1d\r(\xc0F\xab\xe1\xbf\xa8^\xec\xaaT~\xe8@'
tbsg64
I01
sg65
g61
(g62
(I0
tS'b'
tRp342
(I1
(I3
tg67
I00
S'\x01\x01\x01'
tbsg68
I00
sbag8
(g12
g13
NtRp343
(dp344
g16
g323
sg60
g61
(g62
(I0
tS'b'
tRp345
(I1
(I3
tg6
I00
S'4\x8bb\x89r\x8a\x03@Ly\xed,P\xb6\xf7\xbf\xc4\xf1"\x12p\\\xe0@'
tbsg64
I01
sg65
g61
(g62
(I0
tS'b'
tRp346
(I1
(I3
tg67
I00
S'\x01\x01\x01'
tbsg68
I00
sbag8
(g12
g13
NtRp347
(dp348
g16
g323
sg60
g61
(g62
(I0
tS'b'
tRp349
(I1
(I3
tg6
I00
S'\xfb\xc1\xe5V\x1a\xd9\x06@\xd8\xc6{\xa7 \x8d\xf6\xbfN$\xb0g\x1d\x8d\xd2@'
tbsg64
I01
sg65
g61
(g62
(I0
tS'b'
tRp350
(I1
(I3
tg67
I00
S'\x01\x01\x01'
tbsg68
I00
sbag8
(g12
g13
NtRp351
(dp352
g16
g323
sg60
g61
(g62
(I0
tS'b'
tRp353
(I1
(I3
tg6
I00
S'\xc8e\xe0\xf8X\xee\x0c@\xbde\x0be\r\xbb\xee\xbf\x18\x8f\x1c\x06&9\xf2@'
tbsg64
I01
sg65
g61
(g62
(I0
tS'b'
tRp354
(I1
(I3
tg67
I00
S'\x01\x01\x01'
tbsg68
I00
sbag8
(g12
g13
NtRp355
(dp356
g16
g323
sg60
g61
(g62
(I0
tS'b'
tRp357
(I1
(I3
tg6
I00
S'\x04\xdc\x81\\\xc4(\x10@\x8ff=\xcf\xdb0\xf7\xbfL\xe6\x88\x89!X\xdf@'
tbsg64
I01
sg65
g61
(g62
(I0
tS'b'
tRp358
(I1
(I3
tg67
I00
S'\x01\x01\x01'
tbsg68
I00
sbag8
(g12
g13
NtRp359
(dp360
g16
g323
sg60
g61
(g62
(I0
tS'b'
tRp361
(I1
(I3
tg6
I00
S'@\xf6l\\\x08\xd2\x10@\xb9\x14\xc3V\xdcg\xf7\xbf\xc3\x84\x0b\x85?\xd8\xde@'
tbsg64
I01
sg65
g61
(g62
(I0
tS'b'
tRp362
(I1
(I3
tg67
I00
S'\x01\x01\x01'
tbsg68
I00
sbag8
(g12
g13
NtRp363
(dp364
g16
g323
sg60
g61
(g62
(I0
tS'b'
tRp365
(I1
(I3
tg6
I00
S'm\x0c\xf9i\xe4\x14\x12@\xfcAM\x0e_#\xf4\xbfL\x921&\xf6\xb5\xec@'
tbsg64
I01
sg65
g61
(g62
(I0
tS'b'
tRp366
(I1
(I3
tg67
I00
S'\x01\x01\x01'
tbsg68
I00
sbag8
(g12
g13
NtRp367
(dp368
g16
g323
sg60
g61
(g62
(I0
tS'b'
tRp369
(I1
(I3
tg6
I00
S'\x10\xce-DT\x1a\x13@_=\xe9\xf8\x17\x86\xe7\xbf\x02\xf8\xc4\x1a\xbcN\xe7@'
tbsg64
I01
sg65
g61
(g62
(I0
tS'b'
tRp370
(I1
(I3
tg67
I00
S'\x01\x01\x01'
tbsg68
I00
sbag8
(g12
g13
NtRp371
(dp372
g16
g323
sg60
g61
(g62
(I0
tS'b'
tRp373
(I1
(I3
tg6
I00
S'\xa3\x9dQ\x1d\xeb\xc0\x14@\x18\xf0\x97((\xba\xf5\xbf\xc8gYG>\xb4\xd9@'
tbsg64
I01
sg65
g61
(g62
(I0
tS'b'
tRp374
(I1
(I3
tg67
I00
S'\x01\x01\x01'
tbsg68
I00
sbag8
(g12
g13
NtRp375
(dp376
g16
g323
sg60
g61
(g62
(I0
tS'b'
tRp377
(I1
(I3
tg6
I00
S'\xda\x9a-\x91>\xce\x15@\x9f\xe8\xb3\x13\x15\x8a\xf0\xbf\xa4\xd6\x0f\xca|\x1b\xf6@'
tbsg64
I01
sg65
g61
(g62
(I0
tS'b'
tRp378
(I1
(I3
tg67
I00
S'\x01\x01\x01'
tbsg68
I00
sbag8
(g12
g13
NtRp379
(dp380
g16
g323
sg60
g61
(g62
(I0
tS'b'
tRp381
(I1
(I3
tg6
I00
S'"\x88\xfa\xde\xbf\xf2\x16@\xe8\x86Y+\x16\xd7\xf6\xbf\x1e\xcb*\x05\xf9\xbe\xe3@'
tbsg64
I01
sg65
g61
(g62
(I0
tS'b'
tRp382
(I1
(I3
tg67
I00
S'\x01\x01\x01'
tbsg68
I00
sbag8
(g12
g13
NtRp383
(dp384
g16
g323
sg60
g61
(g62
(I0
tS'b'
tRp385
(I1
(I3
tg6
I00
S'S\xfc-\x8f\xd0T\x18@\xb1f\xf5)|\x8b\xde\xbf\xc0N=!p\xa7\xfd@'
tbsg64
I01
sg65
g61
(g62
(I0
tS'b'
tRp386
(I1
(I3
tg67
I00
S'\x01\x01\x01'
tbsg68
I00
sbag8
(g12
g13
NtRp387
(dp388
g16
g323
sg60
g61
(g62
(I0
tS'b'
tRp389
(I1
(I3
tg6
I00
S'\x8a\xa5~\xbb\x9cn\x1a@\xf1\xf4d\x0c\xfe\xe7\xee\xbfM\xf0\x87\xd1\xff\x9f\xf2@'
tbsg64
I01
sg65
g61
(g62
(I0
tS'b'
tRp390
(I1
(I3
tg67
I00
S'\x01\x01\x01'
tbsg68
I00
sbag8
(g12
g13
NtRp391
(dp392
g16
g323
sg60
g61
(g62
(I0
tS'b'
tRp393
(I1
(I3
tg6
I00
S'n\xbeU6\xd5\x9a\x1b@\x1c\xdd\xa3\xca\x1d\xcc\xca\xbf\xe5tI\x84\xebv\xf8@'
tbsg64
I01
sg65
g61
(g62
(I0
tS'b'
tRp394
(I1
(I3
tg67
I00
S'\x01\x01\x01'
tbsg68
I00
sbatRp395
a(dp396
g60
g61
(g62
(I0
tS'b'
tRp397
(I1
(I0
tg6
I00
S''
tbsg64
I00
sg65
g61
(g62
(I0
tS'b'
tRp398
(I1
(I0
tg67
I00
S''
tbsg68
I00
sag4
(g6
S'_+\xf8\xc4\x91^\xbf?'
tRp399
aa(lp400
g4
(g6
S'<V \x8c\xb4Z\xaa@'
tRp401
ag8
(g9
g10
(lp402
g8
(g12
g13
NtRp403
(dp404
g16
g8
(g17
g13
NtRp405
(dp406
g20
F5
sg21
(dp407
g20
(F5
g23
tp408
sg25
(F20.755266780473114
g23
tp409
sg27
(F4
g23
tp410
ssg27
F4
sg29
I3
sg25
F20.755266780473114
sg30
g32
sg41
g42
sg48
g49
sg53
g54
sbsg60
g61
(g62
(I0
tS'b'
tRp411
(I1
(I3
tg6
I00
S'\x80es{\xf8Z\xf6?A\xdf\x8ag\xf4\x97\xf5\xbf\xb3\x85\x1c\xdc\x919\xd5@'
tbsg64
I01
sg65
g61
(g62
(I0
tS'b'
tRp412
(I1
(I3
tg67
I00
S'\x01\x01\x01'
tbsg68
I00
sbag8
(g12
g13
NtRp413
(dp414
g16
g405
sg60
g61
(g62
(I0
tS'b'
tRp415
(I1
(I3
tg6
I00
S'\xd8\x8a,\xeb_\n\xf8?\xd4<\x86\xd0\xca\xf3\xf7\xbf\xb4\xa9\xa8\xee\x07\xd4\xdd@'
tbsg64
I01
sg65
g61
(g62
(I0
tS'b'
tRp416
(I1
(I3
tg67
I00
S'\x01\x01\x01'
tbsg68
I00
sbag8
(g12
g13
NtRp417
(dp418
g16
g405
sg60
g61
(g62
(I0
tS'b'
tRp419
(I1
(I3
tg6
I00
S'\xeb\x00\xc8\x92\xfa\xec\xfd?a\xd4Jt\xcf\x11\xf7\xbf\xf7\xe6E\xab\x1f\x1a\xae@'
tbsg64
I01
sg65
g61
(g62
(I0
tS'b'
tRp420
(I1
(I3
tg67
I00
S'\x01\x01\x01'
tbsg68
I00
sbag8
(g12
g13
NtRp421
(dp422
g16
g405
sg60
g61
(g62
(I0
tS'b'
tRp423
(I1
(I3
tg6
I00
S'A\xbf=A\xdb\xbf\x01@\xaa\xd2\x07\x8f\xf2\xb7\xf7\xbfS\xbb\xe3\xc2\xa0\x11\xba@'
tbsg64
I01
sg65
g61
(g62
(I0
tS'b'
tRp424
(I1
(I3
tg67
I00
S'\x01\x01\x01'
tbsg68
I00
sbag8
(g12
g13
NtRp425
(dp426
g16
g405
sg60
g61
(g62
(I0
tS'b'
tRp427
(I1
(I3
tg6
I00
S'\x1f\xa7\xb11\x82\x87\x03@\xc4\x81\x13_re\xf3\xbf\xa2\xbe\x13$\xf1\xe2\xef@'
tbsg64
I01
sg65
g61
(g62
(I0
tS'b'
tRp428
(I1
(I3
tg67
I00
S'\x01\x01\x01'
tbsg68
I00
sbag8
(g12
g13
NtRp429
(dp430
g16
g405
sg60
g61
(g62
(I0
tS'b'
tRp431
(I1
(I3
tg6
I00
S'\x11&\xd4z|\xa3\x06@\xa2\x91\xae\xa9\xae\xde\xed\xbf\xb27\nc\xa0\xb8\xd9@'
tbsg64
I01
sg65
g61
(g62
(I0
tS'b'
tRp432
(I1
(I3
tg67
I00
S'\x01\x01\x01'
tbsg68
I00
sbag8
(g12
g13
NtRp433
(dp434
g16
g405
sg60
g61
(g62
(I0
tS'b'
tRp435
(I1
(I3
tg6
I00
S'\xd2@s\xa7"\xec\x0c@\xf8\x9a\'FF\xcb\xf0\xbfe\x1cS\x03\xd8Q\xf1@'
tbsg64
I01
sg65
g61
(g62
(I0
tS'b'
tRp436
(I1
(I3
tg67
I00
S'\x01\x01\x01'
tbsg68
I00
sbag8
(g12
g13
NtRp437
(dp438
g16
g405
sg60
g61
(g62
(I0
tS'b'
tRp439
(I1
(I3
tg6
I00
S'd\xb3Z\xc7w|\x10@!\x84P\r\x9da\xe8\xbf\xcf|\xb1I\x01\xaf\xef@'
tbsg64
I01
sg65
g61
(g62
(I0
tS'b'
tRp440
(I1
(I3
tg67
I00
S'\x01\x01\x01'
tbsg68
I00
sbag8
(g12
g13
NtRp441
(dp442
g16
g405
sg60
g61
(g62
(I0
tS'b'
tRp443
(I1
(I3
tg6
I00
S'\xdb,\x86\xa3\x12"\x12@f\x8d\x90k\xf8\xad\xf6\xbf\xcb\x0b\x8a\x12@=\xee@'
tbsg64
I01
sg65
g61
(g62
(I0
tS'b'
tRp444
(I1
(I3
tg67
I00
S'\x01\x01\x01'
tbsg68
I00
sbag8
(g12
g13
NtRp445
(dp446
g16
g405
sg60
g61
(g62
(I0
tS'b'
tRp447
(I1
(I3
tg6
I00
S'\xbf\x07\xed\x99B"\x13@\x14-\xcd\x1d\xfd\xb1\xf6\xbf\xbc\x0c\x95\x0b_]\xde@'
tbsg64
I01
sg65
g61
(g62
(I0
tS'b'
tRp448
(I1
(I3
tg67
I00
S'\x01\x01\x01'
tbsg68
I00
sbag8
(g12
g13
NtRp449
(dp450
g16
g405
sg60
g61
(g62
(I0
tS'b'
tRp451
(I1
(I3
tg6
I00
S'\xa72\xc0xz\xb9\x14@\xd1\xfde\xd5\xd5\x97\xe5\xbfJgp\x9c2\x8d\xe3@'
tbsg64
I01
sg65
g61
(g62
(I0
tS'b'
tRp452
(I1
(I3
tg67
I00
S'\x01\x01\x01'
tbsg68
I00
sbag8
(g12
g13
NtRp453
(dp454
g16
g405
sg60
g61
(g62
(I0
tS'b'
tRp455
(I1
(I3
tg6
I00
S'\t\xfd\xed@\xfc\xd6\x15@\xacN\x1d\x07A\xe0\xee\xbf\xffxu*^0\xf5@'
tbsg64
I01
sg65
g61
(g62
(I0
tS'b'
tRp456
(I1
(I3
tg67
I00
S'\x01\x01\x01'
tbsg68
I00
sbag8
(g12
g13
NtRp457
(dp458
g16
g405
sg60
g61
(g62
(I0
tS'b'
tRp459
(I1
(I3
tg6
I00
S'\x11\xd5:/r\xf8\x16@\x04\xcf\n<=\xd4\xf5\xbf"m\xfd\x83\xf1\x1e\xe3@'
tbsg64
I01
sg65
g61
(g62
(I0
tS'b'
tRp460
(I1
(I3
tg67
I00
S'\x01\x01\x01'
tbsg68
I00
sbag8
(g12
g13
NtRp461
(dp462
g16
g405
sg60
g61
(g62
(I0
tS'b'
tRp463
(I1
(I3
tg6
I00
S'\x1c\xd5\x9a\x11\xfaU\x18@\x93m\x15}\xef\xf0\xde\xbf\xdbh\xdb\x923r\xfd@'
tbsg64
I01
sg65
g61
(g62
(I0
tS'b'
tRp464
(I1
(I3
tg67
I00
S'\x01\x01\x01'
tbsg68
I00
sbag8
(g12
g13
NtRp465
(dp466
g16
g405
sg60
g61
(g62
(I0
tS'b'
tRp467
(I1
(I3
tg6
I00
S'\xf3\x81"\x98Yl\x1a@\xc2\x9ful\xa5\x88\xef\xbf\xc5u\x0b\xc0\xfc\xe2\xf0@'
tbsg64
I01
sg65
g61
(g62
(I0
tS'b'
tRp468
(I1
(I3
tg67
I00
S'\x01\x01\x01'
tbsg68
I00
sbag8
(g12
g13
NtRp469
(dp470
g16
g405
sg60
g61
(g62
(I0
tS'b'
tRp471
(I1
(I3
tg6
I00
S'\xcb\x82v\x88W\x89\x1b@\xe0N\xd5\xf3\x11\xe2\xb6\xbf\xce/;\x13Ku\xfa@'
tbsg64
I01
sg65
g61
(g62
(I0
tS'b'
tRp472
(I1
(I3
tg67
I00
S'\x01\x01\x01'
tbsg68
I00
sbatRp473
a(dp474
g60
g61
(g62
(I0
tS'b'
tRp475
(I1
(I0
tg6
I00
S''
tbsg64
I00
sg65
g61
(g62
(I0
tS'b'
tRp476
(I1
(I0
tg67
I00
S''
tbsg68
I00
sag4
(g6
S'\x08\xd7\xa3p=\xaa\xc0?'
tRp477
aa(lp478
g4
(g6
S'x\xb3\t*\xb6\xaa\xae@'
tRp479
ag8
(g9
g10
(lp480
g8
(g12
g13
NtRp481
(dp482
g16
g8
(g17
g13
NtRp483
(dp484
g20
F5
sg21
(dp485
g20
(F5
g23
tp486
sg25
(F20.755266780473114
g23
tp487
sg27
(F4
g23
tp488
ssg27
F4
sg29
I3
sg25
F20.755266780473114
sg30
g32
sg41
g42
sg48
g49
sg53
g54
sbsg60
g61
(g62
(I0
tS'b'
tRp489
(I1
(I3
tg6
I00
S'@\x07\xf9\xa8\x12\n\xf7?\x19\xf3\xd4?\x83\xee\xf3\xbf\xd1C\xa8Uu\x1e\xe1@'
tbsg64
I01
sg65
g61
(g62
(I0
tS'b'
tRp490
(I1
(I3
tg67
I00
S'\x01\x01\x01'
tbsg68
I00
sbag8
(g12
g13
NtRp491
(dp492
g16
g483
sg60
g61
(g62
(I0
tS'b'
tRp493
(I1
(I3
tg6
I00
S'/sO\xec\x0c\x81\x03@\xea\x0b\xe74K{\xee\xbfX\xf7\xa0\x9f\x10\xbb\xf2@'
tbsg64
I01
sg65
g61
(g62
(I0
tS'b'
tRp494
(I1
(I3
tg67
I00
S'\x01\x01\x01'
tbsg68
I00
sbag8
(g12
g13
NtRp495
(dp496
g16
g483
sg60
g61
(g62
(I0
tS'b'
tRp497
(I1
(I3
tg6
I00
S'5\xba\x0cU\xa7\xc6\x06@\xff\xc2\xe6\x81\xc7C\xf6\xbf\x8fH\xb8d\x82\xe6\xd4@'
tbsg64
I01
sg65
g61
(g62
(I0
tS'b'
tRp498
(I1
(I3
tg67
I00
S'\x01\x01\x01'
tbsg68
I00
sbag8
(g12
g13
NtRp499
(dp500
g16
g483
sg60
g61
(g62
(I0
tS'b'
tRp501
(I1
(I3
tg6
I00
S'\xc7VX\x0f\x82\xea\x0c@\x03\x91\x0eO\xe3|\xef\xbf\x04u\xa2\x15\x0f\xec\xf1@'
tbsg64
I01
sg65
g61
(g62
(I0
tS'b'
tRp502
(I1
(I3
tg67
I00
S'\x01\x01\x01'
tbsg68
I00
sbag8
(g12
g13
NtRp503
(dp504
g16
g483
sg60
g61
(g62
(I0
tS'b'
tRp505
(I1
(I3
tg6
I00
S's\xa5\xfc\xbd\xd0t\x10@ekH:\xfe\x0e\xee\xbf\xef\xa8\x82e\x90\x90\xec@'
tbsg64
I01
sg65
g61
(g62
(I0
tS'b'
tRp506
(I1
(I3
tg67
I00
S'\x01\x01\x01'
tbsg68
I00
sbag8
(g12
g13
NtRp507
(dp508
g16
g483
sg60
g61
(g62
(I0
tS'b'
tRp509
(I1
(I3
tg6
I00
S"\x95\xb5\xeey!'\x12@\x1b\x89~B\xca\x80\xf1\xbf\x8d\xb0H\xd4<\xb9\xf1@"
tbsg64
I01
sg65
g61
(g62
(I0
tS'b'
tRp510
(I1
(I3
tg67
I00
S'\x01\x01\x01'
tbsg68
I00
sbag8
(g12
g13
NtRp511
(dp512
g16
g483
sg60
g61
(g62
(I0
tS'b'
tRp513
(I1
(I3
tg6
I00
S'\xd0\xe2\xd6G\x8dE\x13@\xa3\x9f\xe2\xa7\xc6]\xf1\xbf\xe9\xb2\xf6q\x85\x85\xdf@'
tbsg64
I01
sg65
g61
(g62
(I0
tS'b'
tRp514
(I1
(I3
tg67
I00
S'\x01\x01\x01'
tbsg68
I00
sbag8
(g12
g13
NtRp515
(dp516
g16
g483
sg60
g61
(g62
(I0
tS'b'
tRp517
(I1
(I3
tg6
I00
S'\x88\xa2]\xd9%\xbb\x14@=#B\x84\xed\xd4\xf2\xbf\x86\xf4\xb8\xee\x9b\x15\xdc@'
tbsg64
I01
sg65
g61
(g62
(I0
tS'b'
tRp518
(I1
(I3
tg67
I00
S'\x01\x01\x01'
tbsg68
I00
sbag8
(g12
g13
NtRp519
(dp520
g16
g483
sg60
g61
(g62
(I0
tS'b'
tRp521
(I1
(I3
tg6
I00
S'`D\xc3\xa7\xde\xd0\x15@p\xea\xfc+\x93\xed\xef\xbfgp\x02\xb5|[\xf6@'
tbsg64
I01
sg65
g61
(g62
(I0
tS'b'
tRp522
(I1
(I3
tg67
I00
S'\x01\x01\x01'
tbsg68
I00
sbag8
(g12
g13
NtRp523
(dp524
g16
g483
sg60
g61
(g62
(I0
tS'b'
tRp525
(I1
(I3
tg6
I00
S'\xc1\x89\x16Z9\xf9\x16@GQ\xe9\xca\xb1\x1f\xf6\xbf\x18\xb8>\x9d\xc9=\xe4@'
tbsg64
I01
sg65
g61
(g62
(I0
tS'b'
tRp526
(I1
(I3
tg67
I00
S'\x01\x01\x01'
tbsg68
I00
sbag8
(g12
g13
NtRp527
(dp528
g16
g483
sg60
g61
(g62
(I0
tS'b'
tRp529
(I1
(I3
tg6
I00
S'\x9bZ7\xfc\xeeW\x18@\xb6@^\xfd\xd2l\xe0\xbfS\xa8\x89\xcd$\t\xfd@'
tbsg64
I01
sg65
g61
(g62
(I0
tS'b'
tRp530
(I1
(I3
tg67
I00
S'\x01\x01\x01'
tbsg68
I00
sbag8
(g12
g13
NtRp531
(dp532
g16
g483
sg60
g61
(g62
(I0
tS'b'
tRp533
(I1
(I3
tg6
I00
S'\xc06\x91\xbalo\x1a@f\xd5\x0f=z\xa6\xee\xbf\xf0<\xbd\xe1\x02;\xf3@'
tbsg64
I01
sg65
g61
(g62
(I0
tS'b'
tRp534
(I1
(I3
tg67
I00
S'\x01\x01\x01'
tbsg68
I00
sbag8
(g12
g13
NtRp535
(dp536
g16
g483
sg60
g61
(g62
(I0
tS'b'
tRp537
(I1
(I3
tg6
I00
S'\xbb%0\x08\x06\xa1\x1b@p\xa3X7M\xdf\xcd\xbf)\x8fbO=\xf4\xf7@'
tbsg64
I01
sg65
g61
(g62
(I0
tS'b'
tRp538
(I1
(I3
tg67
I00
S'\x01\x01\x01'
tbsg68
I00
sbatRp539
a(dp540
g60
g61
(g62
(I0
tS'b'
tRp541
(I1
(I0
tg6
I00
S''
tbsg64
I00
sg65
g61
(g62
(I0
tS'b'
tRp542
(I1
(I0
tg67
I00
S''
tbsg68
I00
sag4
(g6
S'`#\xfe5\xe2_\xc3?'
tRp543
aa(lp544
g4
(g6
S'[\x88\xf9\xe3[}\xb1@'
tRp545
ag8
(g9
g10
(lp546
g8
(g12
g13
NtRp547
(dp548
g16
g8
(g17
g13
NtRp549
(dp550
g20
F5
sg21
(dp551
g20
(F5
g23
tp552
sg25
(F20.755266780473114
g23
tp553
sg27
(F4
g23
tp554
ssg27
F4
sg29
I3
sg25
F20.755266780473114
sg30
g32
sg41
g42
sg48
g49
sg53
g54
sbsg60
g61
(g62
(I0
tS'b'
tRp555
(I1
(I3
tg6
I00
S"W[\x0f\xc9\x0f\t\xf7?D\xadK\xbd\xfc\xda\xf3\xbf\xa89Q\x84\x9c'\xe1@"
tbsg64
I01
sg65
g61
(g62
(I0
tS'b'
tRp556
(I1
(I3
tg67
I00
S'\x01\x01\x01'
tbsg68
I00
sbag8
(g12
g13
NtRp557
(dp558
g16
g549
sg60
g61
(g62
(I0
tS'b'
tRp559
(I1
(I3
tg6
I00
S'\x19~9\x14\xf3\x81\x03@\x1f%T\x0c\xf8}\xee\xbf\x89\xe3)p\xea\xba\xf2@'
tbsg64
I01
sg65
g61
(g62
(I0
tS'b'
tRp560
(I1
(I3
tg67
I00
S'\x01\x01\x01'
tbsg68
I00
sbag8
(g12
g13
NtRp561
(dp562
g16
g549
sg60
g61
(g62
(I0
tS'b'
tRp563
(I1
(I3
tg6
I00
S'\xfc\x12\x15\r\x86\xc6\x06@1\xbda\x91\xfb\x1b\xf6\xbf\xfe\xbd\xf6\xf3\xeb\x05\xd5@'
tbsg64
I01
sg65
g61
(g62
(I0
tS'b'
tRp564
(I1
(I3
tg67
I00
S'\x01\x01\x01'
tbsg68
I00
sbag8
(g12
g13
NtRp565
(dp566
g16
g549
sg60
g61
(g62
(I0
tS'b'
tRp567
(I1
(I3
tg6
I00
S'\xc3xU\xa2&\xeb\x0c@\xe7\xaaJ\x07\x9cG\xef\xbf{\x8b\xcco\xff\xfa\xf1@'
tbsg64
I01
sg65
g61
(g62
(I0
tS'b'
tRp568
(I1
(I3
tg67
I00
S'\x01\x01\x01'
tbsg68
I00
sbag8
(g12
g13
NtRp569
(dp570
g16
g549
sg60
g61
(g62
(I0
tS'b'
tRp571
(I1
(I3
tg6
I00
S'g\xc1zh`r\x10@\xaf\xd6mO\xfb\xe1\xee\xbf\x17\x9a-oI\x06\xec@'
tbsg64
I01
sg65
g61
(g62
(I0
tS'b'
tRp572
(I1
(I3
tg67
I00
S'\x01\x01\x01'
tbsg68
I00
sbag8
(g12
g13
NtRp573
(dp574
g16
g549
sg60
g61
(g62
(I0
tS'b'
tRp575
(I1
(I3
tg6
I00
S'\x87`\x9e\xaa\x0b1\x12@H\xc5\xb7M\t\xfa\xef\xbf\x16\xa6)\x0e\xeal\xf3@'
tbsg64
I01
sg65
g61
(g62
(I0
tS'b'
tRp576
(I1
(I3
tg67
I00
S'\x01\x01\x01'
tbsg68
I00
sbag8
(g12
g13
NtRp577
(dp578
g16
g549
sg60
g61
(g62
(I0
tS'b'
tRp579
(I1
(I3
tg6
I00
S'5\xdf\x13!B^\x13@\xacz\x8f\xe21\xc5\xf4\xbf\xfa2H\xa2\xfdm\xd9@'
tbsg64
I01
sg65
g61
(g62
(I0
tS'b'
tRp580
(I1
(I3
tg67
I00
S'\x01\x01\x01'
tbsg68
I00
sbag8
(g12
g13
NtRp581
(dp582
g16
g549
sg60
g61
(g62
(I0
tS'b'
tRp583
(I1
(I3
tg6
I00
S'^\x94j\xdb\xd6\xaf\x14@\x9a\xf4\xd3\x16`\x98\xf4\xbf%\xb7L\x89?\x04\xda@'
tbsg64
I01
sg65
g61
(g62
(I0
tS'b'
tRp584
(I1
(I3
tg67
I00
S'\x01\x01\x01'
tbsg68
I00
sbag8
(g12
g13
NtRp585
(dp586
g16
g549
sg60
g61
(g62
(I0
tS'b'
tRp587
(I1
(I3
tg6
I00
S'\x1f\xfa\xa1\xcb\xaa\xca\x15@\x06\x03\x08\xb01\xd3\xef\xbf7]\\\xe5\x99\x93\xf6@'
tbsg64
I01
sg65
g61
(g62
(I0
tS'b'
tRp588
(I1
(I3
tg67
I00
S'\x01\x01\x01'
tbsg68
I00
sbag8
(g12
g13
NtRp589
(dp590
g16
g549
sg60
g61
(g62
(I0
tS'b'
tRp591
(I1
(I3
tg6
I00
S'\xe1\xb7\x91QP\xfc\x16@_\x931\xdf\xb4\xb6\xf4\xbf\xb5\x89v\xf7\x1cG\xe7@'
tbsg64
I01
sg65
g61
(g62
(I0
tS'b'
tRp592
(I1
(I3
tg67
I00
S'\x01\x01\x01'
tbsg68
I00
sbag8
(g12
g13
NtRp593
(dp594
g16
g549
sg60
g61
(g62
(I0
tS'b'
tRp595
(I1
(I3
tg6
I00
S'\x80z\xca\xa1\x05[\x18@\x9a\x9f\xad\x8a2\r\xe3\xbf\xd8H\xe3\x9dI\xa5\xfb@'
tbsg64
I01
sg65
g61
(g62
(I0
tS'b'
tRp596
(I1
(I3
tg67
I00
S'\x01\x01\x01'
tbsg68
I00
sbag8
(g12
g13
NtRp597
(dp598
g16
g549
sg60
g61
(g62
(I0
tS'b'
tRp599
(I1
(I3
tg6
I00
S'\xc3\x83\rA\x1c\x7f\x1a@\xbdf@3\x85\xf9\xea\xbf\x9d\xc3\xf4i_8\xf9@'
tbsg64
I01
sg65
g61
(g62
(I0
tS'b'
tRp600
(I1
(I3
tg67
I00
S'\x01\x01\x01'
tbsg68
I00
sbag8
(g12
g13
NtRp601
(dp602
g16
g549
sg60
g61
(g62
(I0
tS'b'
tRp603
(I1
(I3
tg6
I00
S'?\xf5\x06\\D\xd4\x1b@\xe1.\x1c\xcdn_\xe2\xbf\x87\x07\n5\x19\xe4\xf1@'
tbsg64
I01
sg65
g61
(g62
(I0
tS'b'
tRp604
(I1
(I3
tg67
I00
S'\x01\x01\x01'
tbsg68
I00
sbatRp605
a(dp606
g60
g61
(g62
(I0
tS'b'
tRp607
(I1
(I0
tg6
I00
S''
tbsg64
I00
sg65
g61
(g62
(I0
tS'b'
tRp608
(I1
(I0
tg67
I00
S''
tbsg68
I00
sag4
(g6
S'`#\xfe5\xe2_\xc3?'
tRp609
aa(lp610
g4
(g6
S'\xf96\xee\xb2\\\xa5\xb3@'
tRp611
ag8
(g9
g10
(lp612
g8
(g12
g13
NtRp613
(dp614
g16
g8
(g17
g13
NtRp615
(dp616
g20
F5
sg21
(dp617
g20
(F5
g23
tp618
sg25
(F20.755266780473114
g23
tp619
sg27
(F4
g23
tp620
ssg27
F4
sg29
I3
sg25
F20.755266780473114
sg30
g32
sg41
g42
sg48
g49
sg53
g54
sbsg60
g61
(g62
(I0
tS'b'
tRp621
(I1
(I3
tg6
I00
S'1\xb7\x9a\xc1\x0c\x0e\xf7?\x97\x96\xe5\xa0\x7f\x80\xf3\xbf:\x8e\x14L\xb4q\xe1@'
tbsg64
I01
sg65
g61
(g62
(I0
tS'b'
tRp622
(I1
(I3
tg67
I00
S'\x01\x01\x01'
tbsg68
I00
sbag8
(g12
g13
NtRp623
(dp624
g16
g615
sg60
g61
(g62
(I0
tS'b'
tRp625
(I1
(I3
tg6
I00
S'\xc5\xddn\x97s\x81\x03@\x1f8-\x11.o\xee\xbf\xb5\x8e\xc2\xfb\xea\xbe\xf2@'
tbsg64
I01
sg65
g61
(g62
(I0
tS'b'
tRp626
(I1
(I3
tg67
I00
S'\x01\x01\x01'
tbsg68
I00
sbag8
(g12
g13
NtRp627
(dp628
g16
g615
sg60
g61
(g62
(I0
tS'b'
tRp629
(I1
(I3
tg6
I00
S'\xf2s\tbz\xc7\x06@\x9e\t`w\xa0\x94\xf6\xbf\x16\xa9\xdf]\xb9_\xd5@'
tbsg64
I01
sg65
g61
(g62
(I0
tS'b'
tRp630
(I1
(I3
tg67
I00
S'\x01\x01\x01'
tbsg68
I00
sbag8
(g12
g13
NtRp631
(dp632
g16
g615
sg60
g61
(g62
(I0
tS'b'
tRp633
(I1
(I3
tg6
I00
S'\xab\x96t\xa7k\xeb\x0c@B\x9cS\xfa##\xef\xbf=\x08\x84\x87P\x05\xf2@'
tbsg64
I01
sg65
g61
(g62
(I0
tS'b'
tRp634
(I1
(I3
tg67
I00
S'\x01\x01\x01'
tbsg68
I00
sbag8
(g12
g13
NtRp635
(dp636
g16
g615
sg60
g61
(g62
(I0
tS'b'
tRp637
(I1
(I3
tg6
I00
S'\x88\xbc\xf1,\x1cq\x10@\xc9\t\xca\xd0\xbam\xef\xbfGi\x95\xe92\xaf\xeb@'
tbsg64
I01
sg65
g61
(g62
(I0
tS'b'
tRp638
(I1
(I3
tg67
I00
S'\x01\x01\x01'
tbsg68
I00
sbag8
(g12
g13
NtRp639
(dp640
g16
g615
sg60
g61
(g62
(I0
tS'b'
tRp641
(I1
(I3
tg6
I00
S'\xd1VEi^4\x12@\xfaPLz?\x9e\xee\xbf\xbe\xf9\xd5\\\\\x16\xf4@'
tbsg64
I01
sg65
g61
(g62
(I0
tS'b'
tRp642
(I1
(I3
tg67
I00
S'\x01\x01\x01'
tbsg68
I00
sbag8
(g12
g13
NtRp643
(dp644
g16
g615
sg60
g61
(g62
(I0
tS'b'
tRp645
(I1
(I3
tg6
I00
S'\x1bb\x8a2hi\x13@\xf64\xe7\xba\xc71\xf6\xbf\x1c\x07J\x87v\xa9\xd7@'
tbsg64
I01
sg65
g61
(g62
(I0
tS'b'
tRp646
(I1
(I3
tg67
I00
S'\x01\x01\x01'
tbsg68
I00
sbag8
(g12
g13
NtRp647
(dp648
g16
g615
sg60
g61
(g62
(I0
tS'b'
tRp649
(I1
(I3
tg6
I00
S'd\x0e\x8f\xcf[\xb4\x14@\x07\x1ap?\xa1J\xf5\xbfy\xe0\n\xf7\xc9\xc1\xda@'
tbsg64
I01
sg65
g61
(g62
(I0
tS'b'
tRp650
(I1
(I3
tg67
I00
S'\x01\x01\x01'
tbsg68
I00
sbag8
(g12
g13
NtRp651
(dp652
g16
g615
sg60
g61
(g62
(I0
tS'b'
tRp653
(I1
(I3
tg6
I00
S'\x1fr\x7f\xfe~\xca\x15@\xdc\xce\xed\x7f\xe6\x84\xf0\xbf)\xeb\xe6\x9a9\x05\xf6@'
tbsg64
I01
sg65
g61
(g62
(I0
tS'b'
tRp654
(I1
(I3
tg67
I00
S'\x01\x01\x01'
tbsg68
I00
sbag8
(g12
g13
NtRp655
(dp656
g16
g615
sg60
g61
(g62
(I0
tS'b'
tRp657
(I1
(I3
tg6
I00
S'\x19\xf6\xb4\x8c\x07\xf9\x16@\xe7#\x7fGs\xdd\xf4\xbf=\xa4ZO\xc6\x8f\xe7@'
tbsg64
I01
sg65
g61
(g62
(I0
tS'b'
tRp658
(I1
(I3
tg67
I00
S'\x01\x01\x01'
tbsg68
I00
sbag8
(g12
g13
NtRp659
(dp660
g16
g615
sg60
g61
(g62
(I0
tS'b'
tRp661
(I1
(I3
tg6
I00
S'"\xa7%ezZ\x18@k|\x9c\xa1K\xb0\xe2\xbf\x99]-\xba\t\xdb\xfb@'
tbsg64
I01
sg65
g61
(g62
(I0
tS'b'
tRp662
(I1
(I3
tg67
I00
S'\x01\x01\x01'
tbsg68
I00
sbag8
(g12
g13
NtRp663
(dp664
g16
g615
sg60
g61
(g62
(I0
tS'b'
tRp665
(I1
(I3
tg6
I00
S'\xbc\x04\x91\xbdw{\x1a@\xd9\x13\xf3\xa0\x89\xca\xeb\xbfD\xa5\xd8()%\xf8@'
tbsg64
I01
sg65
g61
(g62
(I0
tS'b'
tRp666
(I1
(I3
tg67
I00
S'\x01\x01\x01'
tbsg68
I00
sbag8
(g12
g13
NtRp667
(dp668
g16
g615
sg60
g61
(g62
(I0
tS'b'
tRp669
(I1
(I3
tg6
I00
S'\xd4\x81\xcf\xe6\xb0\xcb\x1b@\xf9\xd4\xcf\xb0`|\xe0\xbf\xc5r\xb5\xc7\x02\xfb\xf2@'
tbsg64
I01
sg65
g61
(g62
(I0
tS'b'
tRp670
(I1
(I3
tg67
I00
S'\x01\x01\x01'
tbsg68
I00
sbatRp671
a(dp672
g60
g61
(g62
(I0
tS'b'
tRp673
(I1
(I0
tg6
I00
S''
tbsg64
I00
sg65
g61
(g62
(I0
tS'b'
tRp674
(I1
(I0
tg67
I00
S''
tbsg68
I00
sag4
(g6
S'`#\xfe5\xe2_\xc3?'
tRp675
aa(lp676
g4
(g6
S'\x98\xe5\xe2\x81]\xcd\xb5@'
tRp677
ag8
(g9
g10
(lp678
g8
(g12
g13
NtRp679
(dp680
g16
g8
(g17
g13
NtRp681
(dp682
g20
F5
sg21
(dp683
g20
(F5
g23
tp684
sg25
(F20.755266780473114
g23
tp685
sg27
(F4
g23
tp686
ssg27
F4
sg29
I3
sg25
F20.755266780473114
sg30
g32
sg41
g42
sg48
g49
sg53
g54
sbsg60
g61
(g62
(I0
tS'b'
tRp687
(I1
(I3
tg6
I00
S'\xe5\x94u\xce\xeb\n\xf7?\xcb(\xf08\xda\xec\xf3\xbf?9}\xae\x15!\xe1@'
tbsg64
I01
sg65
g61
(g62
(I0
tS'b'
tRp688
(I1
(I3
tg67
I00
S'\x01\x01\x01'
tbsg68
I00
sbag8
(g12
g13
NtRp689
(dp690
g16
g681
sg60
g61
(g62
(I0
tS'b'
tRp691
(I1
(I3
tg6
I00
S'\xc4\xeb+\x9a@\x80\x03@\xd2\x86\x06\xaedl\xee\xbf\x05\xac\xc9}\xb6\xbe\xf2@'
tbsg64
I01
sg65
g61
(g62
(I0
tS'b'
tRp692
(I1
(I3
tg67
I00
S'\x01\x01\x01'
tbsg68
I00
sbag8
(g12
g13
NtRp693
(dp694
g16
g681
sg60
g61
(g62
(I0
tS'b'
tRp695
(I1
(I3
tg6
I00
S'\xe8{B\x1a5\xc7\x06@\xdep=D\xfc\xa7\xf6\xbfz\xf6\x0e\xcd&/\xd5@'
tbsg64
I01
sg65
g61
(g62
(I0
tS'b'
tRp696
(I1
(I3
tg67
I00
S'\x01\x01\x01'
tbsg68
I00
sbag8
(g12
g13
NtRp697
(dp698
g16
g681
sg60
g61
(g62
(I0
tS'b'
tRp699
(I1
(I3
tg6
I00
S'\xca6\x98.\xee\xe9\x0c@\xa8\x07\xaf\xf3K\xa4\xef\xbf\xac\xc8\x83\xf6\xc3\xde\xf1@'
tbsg64
I01
sg65
g61
(g62
(I0
tS'b'
tRp700
(I1
(I3
tg67
I00
S'\x01\x01\x01'
tbsg68
I00
sbag8
(g12
g13
NtRp701
(dp702
g16
g681
sg60
g61
(g62
(I0
tS'b'
tRp703
(I1
(I3
tg6
I00
S'm\x8a\xf5\xdaNw\x10@V\xe4l\xd5\xd6\x13\xed\xbf\xcd\xfc~b\xc7*\xed@'
tbsg64
I01
sg65
g61
(g62
(I0
tS'b'
tRp704
(I1
(I3
tg67
I00
S'\x01\x01\x01'
tbsg68
I00
sbag8
(g12
g13
NtRp705
(dp706
g16
g681
sg60
g61
(g62
(I0
tS'b'
tRp707
(I1
(I3
tg6
I00
S'\xb3\x1f\x9f\xef\x18%\x12@\xf0\xdb_R\xf1\xc9\xf2\xbf\xb1bHtC"\xf1@'
tbsg64
I01
sg65
g61
(g62
(I0
tS'b'
tRp708
(I1
(I3
tg67
I00
S'\x01\x01\x01'
tbsg68
I00
sbag8
(g12
g13
NtRp709
(dp710
g16
g681
sg60
g61
(g62
(I0
tS'b'
tRp711
(I1
(I3
tg6
I00
S'N\xdcU|%#\x13@\n@\xa9\x92\xd0\x96\xf7\xbf5\xdf\x15\xfa+[\xd2@'
tbsg64
I01
sg65
g61
(g62
(I0
tS'b'
tRp712
(I1
(I3
tg67
I00
S'\x01\x01\x01'
tbsg68
I00
sbag8
(g12
g13
NtRp713
(dp714
g16
g681
sg60
g61
(g62
(I0
tS'b'
tRp715
(I1
(I3
tg6
I00
S'~1l"\xc5\xc7\x15@\x16\x89\xd8=?\x0f\xca\xbf#*gcm\xcf\x01A'
tbsg64
I01
sg65
g61
(g62
(I0
tS'b'
tRp716
(I1
(I3
tg67
I00
S'\x01\x01\x01'
tbsg68
I00
sbag8
(g12
g13
NtRp717
(dp718
g16
g681
sg60
g61
(g62
(I0
tS'b'
tRp719
(I1
(I3
tg6
I00
S'h\xbc\xebz\x94/\x17@\xf2\xce\xb8\xc3i*\xf7\xbf\xe7\x06k(`\xdf\xd8@'
tbsg64
I01
sg65
g61
(g62
(I0
tS'b'
tRp720
(I1
(I3
tg67
I00
S'\x01\x01\x01'
tbsg68
I00
sbag8
(g12
g13
NtRp721
(dp722
g16
g681
sg60
g61
(g62
(I0
tS'b'
tRp723
(I1
(I3
tg6
I00
S'\x08\nB+\xf5e\x18@R\xaf\x82\xa1\xc8?\xe7\xbf\x11\xdb\x83F\xd6/\xf9@'
tbsg64
I01
sg65
g61
(g62
(I0
tS'b'
tRp724
(I1
(I3
tg67
I00
S'\x01\x01\x01'
tbsg68
I00
sbag8
(g12
g13
NtRp725
(dp726
g16
g681
sg60
g61
(g62
(I0
tS'b'
tRp727
(I1
(I3
tg6
I00
S'\xdb\xf3\xb7L~\x81\x1a@\x0e\x84t\xa3\x9aO\xe8\xbfW\x83\xa2\xd3_\xc0\xfa@'
tbsg64
I01
sg65
g61
(g62
(I0
tS'b'
tRp728
(I1
(I3
tg67
I00
S'\x01\x01\x01'
tbsg68
I00
sbag8
(g12
g13
NtRp729
(dp730
g16
g681
sg60
g61
(g62
(I0
tS'b'
tRp731
(I1
(I3
tg6
I00
S'N\xb4,AJ\xe0\x1b@\xd0<\x91\x8c\xfc\x15\xe2\xbfE\x99\x1c\x1d)#\xf1@'
tbsg64
I01
sg65
g61
(g62
(I0
tS'b'
tRp732
(I1
(I3
tg67
I00
S'\x01\x01\x01'
tbsg68
I00
sbatRp733
a(dp734
g60
g61
(g62
(I0
tS'b'
tRp735
(I1
(I0
tg6
I00
S''
tbsg64
I00
sg65
g61
(g62
(I0
tS'b'
tRp736
(I1
(I0
tg67
I00
S''
tbsg68
I00
sag4
(g6
S'`#\xfe5\xe2_\xc3?'
tRp737
aa(lp738
g4
(g6
S'6\x94\xd7P^\xf5\xb7@'
tRp739
ag8
(g9
g10
(lp740
g8
(g12
g13
NtRp741
(dp742
g16
g8
(g17
g13
NtRp743
(dp744
g20
F5
sg21
(dp745
g20
(F5
g23
tp746
sg25
(F20.755266780473114
g23
tp747
sg27
(F4
g23
tp748
ssg27
F4
sg29
I3
sg25
F20.755266780473114
sg30
g32
sg41
g42
sg48
g49
sg53
g54
sbsg60
g61
(g62
(I0
tS'b'
tRp749
(I1
(I3
tg6
I00
S'\x8c_glw\n\xf7?=\x01\x8f\x8c\xbf\xff\xf3\xbf\r\xcc\x8bS\xde\x15\xe1@'
tbsg64
I01
sg65
g61
(g62
(I0
tS'b'
tRp750
(I1
(I3
tg67
I00
S'\x01\x01\x01'
tbsg68
I00
sbag8
(g12
g13
NtRp751
(dp752
g16
g743
sg60
g61
(g62
(I0
tS'b'
tRp753
(I1
(I3
tg6
I00
S'"A)\xe9?\x80\x03@I\x8a\xdd9\x0cv\xee\xbf\xce\xfb\xeb\xdd\xe4\xbb\xf2@'
tbsg64
I01
sg65
g61
(g62
(I0
tS'b'
tRp754
(I1
(I3
tg67
I00
S'\x01\x01\x01'
tbsg68
I00
sbag8
(g12
g13
NtRp755
(dp756
g16
g743
sg60
g61
(g62
(I0
tS'b'
tRp757
(I1
(I3
tg6
I00
S'\x8c\xf3:&\xbb\xc8\x06@B\xb1\x8e\x9e:K\xf6\xbfA\t\xce+ \xdd\xd4@'
tbsg64
I01
sg65
g61
(g62
(I0
tS'b'
tRp758
(I1
(I3
tg67
I00
S'\x01\x01\x01'
tbsg68
I00
sbag8
(g12
g13
NtRp759
(dp760
g16
g743
sg60
g61
(g62
(I0
tS'b'
tRp761
(I1
(I3
tg6
I00
S'j\xb4\xe2\xb2\x08\xea\x0c@vb\xc9\x08%\xa1\xef\xbf6fkr0\xe1\xf1@'
tbsg64
I01
sg65
g61
(g62
(I0
tS'b'
tRp762
(I1
(I3
tg67
I00
S'\x01\x01\x01'
tbsg68
I00
sbag8
(g12
g13
NtRp763
(dp764
g16
g743
sg60
g61
(g62
(I0
tS'b'
tRp765
(I1
(I3
tg6
I00
S'\xfe\xf4\xd5N<v\x10@\xedp\x919\x96\x8a\xed\xbf|\xe3a\x81K\xe2\xec@'
tbsg64
I01
sg65
g61
(g62
(I0
tS'b'
tRp766
(I1
(I3
tg67
I00
S'\x01\x01\x01'
tbsg68
I00
sbag8
(g12
g13
NtRp767
(dp768
g16
g743
sg60
g61
(g62
(I0
tS'b'
tRp769
(I1
(I3
tg6
I00
S'*\xd1\x85\x05`%\x12@\xf8\x0c\xd8\x9eJ$\xf2\xbf\xb0^\x96\xd4sN\xf1@'
tbsg64
I01
sg65
g61
(g62
(I0
tS'b'
tRp770
(I1
(I3
tg67
I00
S'\x01\x01\x01'
tbsg68
I00
sbag8
(g12
g13
NtRp771
(dp772
g16
g743
sg60
g61
(g62
(I0
tS'b'
tRp773
(I1
(I3
tg6
I00
S'{\x9e\x9d\xb9\x93;\x13@R|\r\xf7\xacS\xf2\xbf1y|\x18\x96\x8b\xdf@'
tbsg64
I01
sg65
g61
(g62
(I0
tS'b'
tRp774
(I1
(I3
tg67
I00
S'\x01\x01\x01'
tbsg68
I00
sbag8
(g12
g13
NtRp775
(dp776
g16
g743
sg60
g61
(g62
(I0
tS'b'
tRp777
(I1
(I3
tg6
I00
S'\xda\n\x8f;f\xa1\x14@\x9b\x16\xa2\x91\xceO\xf3\xbf\x15n\xadD\x83\xda\xd8@'
tbsg64
I01
sg65
g61
(g62
(I0
tS'b'
tRp778
(I1
(I3
tg67
I00
S'\x01\x01\x01'
tbsg68
I00
sbag8
(g12
g13
NtRp779
(dp780
g16
g743
sg60
g61
(g62
(I0
tS'b'
tRp781
(I1
(I3
tg6
I00
S'\xf1\x18\xed\xb7\xb0\xbb\x15@\x9e\xdc\x83*\x13\x12\xf0\xbfd\xc3\xca#\x1bp\xf5@'
tbsg64
I01
sg65
g61
(g62
(I0
tS'b'
tRp782
(I1
(I3
tg67
I00
S'\x01\x01\x01'
tbsg68
I00
sbag8
(g12
g13
NtRp783
(dp784
g16
g743
sg60
g61
(g62
(I0
tS'b'
tRp785
(I1
(I3
tg6
I00
S'8\xa3Wrd\xf9\x16@\x98~\xadU?\x11\xef\xbfz\x8c\x85\x93\x11\xe4\xed@'
tbsg64
I01
sg65
g61
(g62
(I0
tS'b'
tRp786
(I1
(I3
tg67
I00
S'\x01\x01\x01'
tbsg68
I00
sbag8
(g12
g13
NtRp787
(dp788
g16
g743
sg60
g61
(g62
(I0
tS'b'
tRp789
(I1
(I3
tg6
I00
S'Q\xb3\x8a\xa2\xd5h\x18@*\xf9\xc3\x93\x9f\xe0\xe5\xbfA\xff\xb3 \xb1\x90\xf9@'
tbsg64
I01
sg65
g61
(g62
(I0
tS'b'
tRp790
(I1
(I3
tg67
I00
S'\x01\x01\x01'
tbsg68
I00
sbag8
(g12
g13
NtRp791
(dp792
g16
g743
sg60
g61
(g62
(I0
tS'b'
tRp793
(I1
(I3
tg6
I00
S'\xe2\x8d\xecq\xe8v\x1a@#\xfe\x19\x151\xf7\xea\xbf\x84N\xfa5\x03\x94\xf7@'
tbsg64
I01
sg65
g61
(g62
(I0
tS'b'
tRp794
(I1
(I3
tg67
I00
S'\x01\x01\x01'
tbsg68
I00
sbag8
(g12
g13
NtRp795
(dp796
g16
g743
sg60
g61
(g62
(I0
tS'b'
tRp797
(I1
(I3
tg6
I00
S'w\xe7E\x16\r\xc4\x1b@\xe43\x17"\x02\xa7\xda\xbf\x00\x96s\xabr\x17\xf4@'
tbsg64
I01
sg65
g61
(g62
(I0
tS'b'
tRp798
(I1
(I3
tg67
I00
S'\x01\x01\x01'
tbsg68
I00
sbatRp799
a(dp800
g60
g61
(g62
(I0
tS'b'
tRp801
(I1
(I0
tg6
I00
S''
tbsg64
I00
sg65
g61
(g62
(I0
tS'b'
tRp802
(I1
(I0
tg67
I00
S''
tbsg68
I00
sag4
(g6
S'`#\xfe5\xe2_\xc3?'
tRp803
aa(lp804
g4
(g6
S'\xd5B\xcc\x1f_\x1d\xba@'
tRp805
ag8
(g9
g10
(lp806
g8
(g12
g13
NtRp807
(dp808
g16
g8
(g17
g13
NtRp809
(dp810
g20
F5
sg21
(dp811
g20
(F5
g23
tp812
sg25
(F20.755266780473114
g23
tp813
sg27
(F4
g23
tp814
ssg27
F4
sg29
I3
sg25
F20.755266780473114
sg30
g32
sg41
g42
sg48
g49
sg53
g54
sbsg60
g61
(g62
(I0
tS'b'
tRp815
(I1
(I3
tg6
I00
S'5zA\xd1H\x05\xf7?=SB\x16\xfb\xfd\xf3\xbf~_f\x1a\x1d3\xe1@'
tbsg64
I01
sg65
g61
(g62
(I0
tS'b'
tRp816
(I1
(I3
tg67
I00
S'\x01\x01\x01'
tbsg68
I00
sbag8
(g12
g13
NtRp817
(dp818
g16
g809
sg60
g61
(g62
(I0
tS'b'
tRp819
(I1
(I3
tg6
I00
S'f\xc2\x18e\xf4\x80\x03@\x98<.)\xa5r\xee\xbf\xd7q\xb4\x17w\xbd\xf2@'
tbsg64
I01
sg65
g61
(g62
(I0
tS'b'
tRp820
(I1
(I3
tg67
I00
S'\x01\x01\x01'
tbsg68
I00
sbag8
(g12
g13
NtRp821
(dp822
g16
g809
sg60
g61
(g62
(I0
tS'b'
tRp823
(I1
(I3
tg6
I00
S'9\xac_*w\xc8\x06@\xe8\xcf+c\xecL\xf6\xbf\xa3{\x97D\x14\xf4\xd4@'
tbsg64
I01
sg65
g61
(g62
(I0
tS'b'
tRp824
(I1
(I3
tg67
I00
S'\x01\x01\x01'
tbsg68
I00
sbag8
(g12
g13
NtRp825
(dp826
g16
g809
sg60
g61
(g62
(I0
tS'b'
tRp827
(I1
(I3
tg6
I00
S'\xab3a\x1bQ\xeb\x0c@\xd3\xde\xfa\xcb\x9db\xef\xbf\x1e\xdc\x0e\xb4\x15\xf3\xf1@'
tbsg64
I01
sg65
g61
(g62
(I0
tS'b'
tRp828
(I1
(I3
tg67
I00
S'\x01\x01\x01'
tbsg68
I00
sbag8
(g12
g13
NtRp829
(dp830
g16
g809
sg60
g61
(g62
(I0
tS'b'
tRp831
(I1
(I3
tg6
I00
S'o\xee\xde\x7fFw\x10@\x00M.\x82\x98\xe7\xea\xbf\xad=\x17L\xcfP\xee@'
tbsg64
I01
sg65
g61
(g62
(I0
tS'b'
tRp832
(I1
(I3
tg67
I00
S'\x01\x01\x01'
tbsg68
I00
sbag8
(g12
g13
NtRp833
(dp834
g16
g809
sg60
g61
(g62
(I0
tS'b'
tRp835
(I1
(I3
tg6
I00
S'\xe5\n\xa4X\xc2!\x12@YP\xe9\xcf\xa6\x00\xf5\xbf\x91\xc0\xe7\xf3a\xab\xef@'
tbsg64
I01
sg65
g61
(g62
(I0
tS'b'
tRp836
(I1
(I3
tg67
I00
S'\x01\x01\x01'
tbsg68
I00
sbag8
(g12
g13
NtRp837
(dp838
g16
g809
sg60
g61
(g62
(I0
tS'b'
tRp839
(I1
(I3
tg6
I00
S'rRF\xdb\x16\x18\x13@\xdc8`\xef\xf6E\xf3\xbf-\x93;\xef\t\xc6\xe0@'
tbsg64
I01
sg65
g61
(g62
(I0
tS'b'
tRp840
(I1
(I3
tg67
I00
S'\x01\x01\x01'
tbsg68
I00
sbag8
(g12
g13
NtRp841
(dp842
g16
g809
sg60
g61
(g62
(I0
tS'b'
tRp843
(I1
(I3
tg6
I00
S'\x11EIPi\xc4\x15@xV\xa0\x1dL\xfe\xd3\xbf\x0f$:\x839\x02\x01A'
tbsg64
I01
sg65
g61
(g62
(I0
tS'b'
tRp844
(I1
(I3
tg67
I00
S'\x01\x01\x01'
tbsg68
I00
sbag8
(g12
g13
NtRp845
(dp846
g16
g809
sg60
g61
(g62
(I0
tS'b'
tRp847
(I1
(I3
tg6
I00
S'w\x19\xc0D\\0\x17@\xb5\xc4\xb8\xff\xc7,\xf7\xbf\xe4\xba6\x14\xfa\x04\xd8@'
tbsg64
I01
sg65
g61
(g62
(I0
tS'b'
tRp848
(I1
(I3
tg67
I00
S'\x01\x01\x01'
tbsg68
I00
sbag8
(g12
g13
NtRp849
(dp850
g16
g809
sg60
g61
(g62
(I0
tS'b'
tRp851
(I1
(I3
tg6
I00
S'FB\xc1\xf1/b\x18@\xef\xa8\xb8\xbfX\xf6\xe4\xbf?\xfa\xef\xf12|\xfa@'
tbsg64
I01
sg65
g61
(g62
(I0
tS'b'
tRp852
(I1
(I3
tg67
I00
S'\x01\x01\x01'
tbsg68
I00
sbag8
(g12
g13
NtRp853
(dp854
g16
g809
sg60
g61
(g62
(I0
tS'b'
tRp855
(I1
(I3
tg6
I00
S'0Wz\xd5+w\x1a@;\xa98\xaa\x0e\xed\xea\xbf_\xff\\K\x96~\xf7@'
tbsg64
I01
sg65
g61
(g62
(I0
tS'b'
tRp856
(I1
(I3
tg67
I00
S'\x01\x01\x01'
tbsg68
I00
sbag8
(g12
g13
NtRp857
(dp858
g16
g809
sg60
g61
(g62
(I0
tS'b'
tRp859
(I1
(I3
tg6
I00
S'x\x81Z\xe7\xbc\xc3\x1b@8W\rj\xc8\x1f\xda\xbf\x92\xfd\xfc\xd1\x9e+\xf4@'
tbsg64
I01
sg65
g61
(g62
(I0
tS'b'
tRp860
(I1
(I3
tg67
I00
S'\x01\x01\x01'
tbsg68
I00
sbatRp861
a(dp862
g60
g61
(g62
(I0
tS'b'
tRp863
(I1
(I0
tg6
I00
S''
tbsg64
I00
sg65
g61
(g62
(I0
tS'b'
tRp864
(I1
(I0
tg67
I00
S''
tbsg68
I00
sag4
(g6
S'`#\xfe5\xe2_\xc3?'
tRp865
aa(lp866
g4
(g6
S't\xf1\xc0\xee_E\xbc@'
tRp867
ag8
(g9
g10
(lp868
g8
(g12
g13
NtRp869
(dp870
g16
g8
(g17
g13
NtRp871
(dp872
g20
F5
sg21
(dp873
g20
(F5
g23
tp874
sg25
(F20.755266780473114
g23
tp875
sg27
(F4
g23
tp876
ssg27
F4
sg29
I3
sg25
F20.755266780473114
sg30
g32
sg41
g42
sg48
g49
sg53
g54
sbsg60
g61
(g62
(I0
tS'b'
tRp877
(I1
(I3
tg6
I00
S'g\x0b\x8b\xcee\x13\xf7?\x13Q!]L\x1a\xf3\xbfL\x08\xf9\xc9\n\xd2\xe1@'
tbsg64
I01
sg65
g61
(g62
(I0
tS'b'
tRp878
(I1
(I3
tg67
I00
S'\x01\x01\x01'
tbsg68
I00
sbag8
(g12
g13
NtRp879
(dp880
g16
g871
sg60
g61
(g62
(I0
tS'b'
tRp881
(I1
(I3
tg6
I00
S"5\xb0\x83u\xe7\x80\x03@y\x1c`\xa2\x1d~\xee\xbf\x97\xaa\xfe'\x1e\xaf\xf2@"
tbsg64
I01
sg65
g61
(g62
(I0
tS'b'
tRp882
(I1
(I3
tg67
I00
S'\x01\x01\x01'
tbsg68
I00
sbag8
(g12
g13
NtRp883
(dp884
g16
g871
sg60
g61
(g62
(I0
tS'b'
tRp885
(I1
(I3
tg6
I00
S'\xc4oY\x03%\xc9\x06@W\xf9\xe3\xefp\xbf\xf6\xbf\xae\xa5\x1c\xe5\x7f\xa8\xd5@'
tbsg64
I01
sg65
g61
(g62
(I0
tS'b'
tRp886
(I1
(I3
tg67
I00
S'\x01\x01\x01'
tbsg68
I00
sbag8
(g12
g13
NtRp887
(dp888
g16
g871
sg60
g61
(g62
(I0
tS'b'
tRp889
(I1
(I3
tg6
I00
S"\x16\x90-]'\xea\x0c@K\x14\x9f\x9fA\xf9\xee\xbf~\x85\x9b\x0e9\x1f\xf2@"
tbsg64
I01
sg65
g61
(g62
(I0
tS'b'
tRp890
(I1
(I3
tg67
I00
S'\x01\x01\x01'
tbsg68
I00
sbag8
(g12
g13
NtRp891
(dp892
g16
g871
sg60
g61
(g62
(I0
tS'b'
tRp893
(I1
(I3
tg6
I00
S'1\xbfu\x90kp\x10@\x9cKp\x9d\x8e[\xf0\xbfj\xc2\xa6\xef`\xf1\xea@'
tbsg64
I01
sg65
g61
(g62
(I0
tS'b'
tRp894
(I1
(I3
tg67
I00
S'\x01\x01\x01'
tbsg68
I00
sbag8
(g12
g13
NtRp895
(dp896
g16
g871
sg60
g61
(g62
(I0
tS'b'
tRp897
(I1
(I3
tg6
I00
S'\xf5G\x9c\xb6\x965\x12@\x7f\x9a\xe3\xed\x9f\x01\xed\xbft\x96U\xec\x02\xcd\xf4@'
tbsg64
I01
sg65
g61
(g62
(I0
tS'b'
tRp898
(I1
(I3
tg67
I00
S'\x01\x01\x01'
tbsg68
I00
sbag8
(g12
g13
NtRp899
(dp900
g16
g871
sg60
g61
(g62
(I0
tS'b'
tRp901
(I1
(I3
tg6
I00
S'\x9c\x98\xa0\x1d@p\x13@\xf9\x15E\x81\x89\xdd\xf6\xbfyc\x1f\xfb\x12\x96\xd7@'
tbsg64
I01
sg65
g61
(g62
(I0
tS'b'
tRp902
(I1
(I3
tg67
I00
S'\x01\x01\x01'
tbsg68
I00
sbag8
(g12
g13
NtRp903
(dp904
g16
g871
sg60
g61
(g62
(I0
tS'b'
tRp905
(I1
(I3
tg6
I00
S'\xa0\x8a\x90\xf5\x08\xb8\x14@\\\xef\x9b\x068J\xf5\xbf\xb7\x1d\x93\xbel\xa1\xd9@'
tbsg64
I01
sg65
g61
(g62
(I0
tS'b'
tRp906
(I1
(I3
tg67
I00
S'\x01\x01\x01'
tbsg68
I00
sbag8
(g12
g13
NtRp907
(dp908
g16
g871
sg60
g61
(g62
(I0
tS'b'
tRp909
(I1
(I3
tg6
I00
S'\xf9\xd1\x1b/Q\xcd\x15@k\xd6\xe8n\x8b\xf2\xef\xbf\x04\rMK\x81\x93\xf6@'
tbsg64
I01
sg65
g61
(g62
(I0
tS'b'
tRp910
(I1
(I3
tg67
I00
S'\x01\x01\x01'
tbsg68
I00
sbag8
(g12
g13
NtRp911
(dp912
g16
g871
sg60
g61
(g62
(I0
tS'b'
tRp913
(I1
(I3
tg6
I00
S'*\x0c\x84^\x1c\x01\x17@\xbf\xc8xw99\xf4\xbf\xa3_*\xaa\xdb\xbc\xe7@'
tbsg64
I01
sg65
g61
(g62
(I0
tS'b'
tRp914
(I1
(I3
tg67
I00
S'\x01\x01\x01'
tbsg68
I00
sbag8
(g12
g13
NtRp915
(dp916
g16
g871
sg60
g61
(g62
(I0
tS'b'
tRp917
(I1
(I3
tg6
I00
S"'\xe9\xa8Q\x05]\x18@\xc2+8\x8f\xab\xc0\xe4\xbf\x8f2f\x92\xcd\xae\xfa@"
tbsg64
I01
sg65
g61
(g62
(I0
tS'b'
tRp918
(I1
(I3
tg67
I00
S'\x01\x01\x01'
tbsg68
I00
sbag8
(g12
g13
NtRp919
(dp920
g16
g871
sg60
g61
(g62
(I0
tS'b'
tRp921
(I1
(I3
tg6
I00
S'S\xba\x9f\x8d\xd9\x84\x1a@\xcd\xbd?\x13{\x04\xe9\xbf\xe0b\x92\x04\x99\t\xfb@'
tbsg64
I01
sg65
g61
(g62
(I0
tS'b'
tRp922
(I1
(I3
tg67
I00
S'\x01\x01\x01'
tbsg68
I00
sbag8
(g12
g13
NtRp923
(dp924
g16
g871
sg60
g61
(g62
(I0
tS'b'
tRp925
(I1
(I3
tg6
I00
S'\x16\x93\xd3\x82k\xe3\x1b@\x1bq^\xc7\x02]\xe4\xbfvE|L\xc5g\xf0@'
tbsg64
I01
sg65
g61
(g62
(I0
tS'b'
tRp926
(I1
(I3
tg67
I00
S'\x01\x01\x01'
tbsg68
I00
sbatRp927
a(dp928
g60
g61
(g62
(I0
tS'b'
tRp929
(I1
(I0
tg6
I00
S''
tbsg64
I00
sg65
g61
(g62
(I0
tS'b'
tRp930
(I1
(I0
tg67
I00
S''
tbsg68
I00
sag4
(g6
S'`#\xfe5\xe2_\xc3?'
tRp931
aa(lp932
g4
(g6
S'\x12\xa0\xb5\xbd`m\xbe@'
tRp933
ag8
(g9
g10
(lp934
g8
(g12
g13
NtRp935
(dp936
g16
g8
(g17
g13
NtRp937
(dp938
g20
F5
sg21
(dp939
g20
(F5
g23
tp940
sg25
(F20.755266780473114
g23
tp941
sg27
(F4
g23
tp942
ssg27
F4
sg29
I3
sg25
F20.755266780473114
sg30
g32
sg41
g42
sg48
g49
sg53
g54
sbsg60
g61
(g62
(I0
tS'b'
tRp943
(I1
(I3
tg6
I00
S'\xd2\xc4\xa4\xef\x10\x14\xf7?\xf8\x7f\xf3\xd4:\x11\xf3\xbf\x18\x93\x01\x19\x08\xd4\xe1@'
tbsg64
I01
sg65
g61
(g62
(I0
tS'b'
tRp944
(I1
(I3
tg67
I00
S'\x01\x01\x01'
tbsg68
I00
sbag8
(g12
g13
NtRp945
(dp946
g16
g937
sg60
g61
(g62
(I0
tS'b'
tRp947
(I1
(I3
tg6
I00
S'\x94\x11"O\x80\x81\x03@\xcf\x08>h\x9f\x94\xee\xbf\xac\xe7\xd0\xf9\x04\xa7\xf2@'
tbsg64
I01
sg65
g61
(g62
(I0
tS'b'
tRp948
(I1
(I3
tg67
I00
S'\x01\x01\x01'
tbsg68
I00
sbag8
(g12
g13
NtRp949
(dp950
g16
g937
sg60
g61
(g62
(I0
tS'b'
tRp951
(I1
(I3
tg6
I00
S'"\nN\xe3\xb7\xc4\x06@\x99\xd5[\\\xf3\xc4\xf6\xbf\xb2\x8e\x89\xd3\xdc\x97\xd5@'
tbsg64
I01
sg65
g61
(g62
(I0
tS'b'
tRp952
(I1
(I3
tg67
I00
S'\x01\x01\x01'
tbsg68
I00
sbag8
(g12
g13
NtRp953
(dp954
g16
g937
sg60
g61
(g62
(I0
tS'b'
tRp955
(I1
(I3
tg6
I00
S'Dcb\xac\xf8\xe9\x0c@\x00\x8d\xf54z\x03\xef\xbf\x88\xb3Gi\xaf \xf2@'
tbsg64
I01
sg65
g61
(g62
(I0
tS'b'
tRp956
(I1
(I3
tg67
I00
S'\x01\x01\x01'
tbsg68
I00
sbag8
(g12
g13
NtRp957
(dp958
g16
g937
sg60
g61
(g62
(I0
tS'b'
tRp959
(I1
(I3
tg6
I00
S'\x92\xa9\x1c\xc2\x83p\x10@/\xfa`\x7f\nX\xf0\xbfS\xd1\xbcVy\xf8\xea@'
tbsg64
I01
sg65
g61
(g62
(I0
tS'b'
tRp960
(I1
(I3
tg67
I00
S'\x01\x01\x01'
tbsg68
I00
sbag8
(g12
g13
NtRp961
(dp962
g16
g937
sg60
g61
(g62
(I0
tS'b'
tRp963
(I1
(I3
tg6
I00
S'\xc5\xacT\xfb\x945\x12@d\x85\xbd\x9a\x8d\x0c\xed\xbf\x8ei{=v\xca\xf4@'
tbsg64
I01
sg65
g61
(g62
(I0
tS'b'
tRp964
(I1
(I3
tg67
I00
S'\x01\x01\x01'
tbsg68
I00
sbag8
(g12
g13
NtRp965
(dp966
g16
g937
sg60
g61
(g62
(I0
tS'b'
tRp967
(I1
(I3
tg6
I00
S'h\xc4\xb3\xde\x08p\x13@\xbf\xd7{o\xbc\xfd\xf6\xbfA\r\x00M`_\xd8@'
tbsg64
I01
sg65
g61
(g62
(I0
tS'b'
tRp968
(I1
(I3
tg67
I00
S'\x01\x01\x01'
tbsg68
I00
sbag8
(g12
g13
NtRp969
(dp970
g16
g937
sg60
g61
(g62
(I0
tS'b'
tRp971
(I1
(I3
tg6
I00
S'v\xd5\xd4\xe0\xde\xb6\x14@\x17\x96\x8d\x05\x06T\xf5\xbfE\x00u\x07k\x87\xd9@'
tbsg64
I01
sg65
g61
(g62
(I0
tS'b'
tRp972
(I1
(I3
tg67
I00
S'\x01\x01\x01'
tbsg68
I00
sbag8
(g12
g13
NtRp973
(dp974
g16
g937
sg60
g61
(g62
(I0
tS'b'
tRp975
(I1
(I3
tg6
I00
S'\xc2\x1dsnP\xcd\x15@\xe7\xce\xad&\xd7\xc8\xef\xbf\xc9\x1b|j\x96\xaf\xf6@'
tbsg64
I01
sg65
g61
(g62
(I0
tS'b'
tRp976
(I1
(I3
tg67
I00
S'\x01\x01\x01'
tbsg68
I00
sbag8
(g12
g13
NtRp977
(dp978
g16
g937
sg60
g61
(g62
(I0
tS'b'
tRp979
(I1
(I3
tg6
I00
S'N\xf6E\x94`\x01\x17@#\x15vLmM\xf4\xbf\x95i\x07\xd7\xa0\x94\xe7@'
tbsg64
I01
sg65
g61
(g62
(I0
tS'b'
tRp980
(I1
(I3
tg67
I00
S'\x01\x01\x01'
tbsg68
I00
sbag8
(g12
g13
NtRp981
(dp982
g16
g937
sg60
g61
(g62
(I0
tS'b'
tRp983
(I1
(I3
tg6
I00
S'\xd6\x0f\x9f\xba\xf1\\\x18@N\x9ab\x16D\xab\xe4\xbf\x8d\xd4\xb8\xee\xa1\xbc\xfa@'
tbsg64
I01
sg65
g61
(g62
(I0
tS'b'
tRp984
(I1
(I3
tg67
I00
S'\x01\x01\x01'
tbsg68
I00
sbag8
(g12
g13
NtRp985
(dp986
g16
g937
sg60
g61
(g62
(I0
tS'b'
tRp987
(I1
(I3
tg6
I00
S'\xb0\x05e\xf7i\x84\x1a@\xbd\xf2\xe3\xd0\xaa \xe9\xbf?\xae\x8f0\x87\xe9\xfa@'
tbsg64
I01
sg65
g61
(g62
(I0
tS'b'
tRp988
(I1
(I3
tg67
I00
S'\x01\x01\x01'
tbsg68
I00
sbag8
(g12
g13
NtRp989
(dp990
g16
g937
sg60
g61
(g62
(I0
tS'b'
tRp991
(I1
(I3
tg6
I00
S'z\x87\x9dv\x8b\xe2\x1b@:\x06\x98\xe2h!\xe4\xbf\xd2\n\x8a\xe7\xfa\x88\xf0@'
tbsg64
I01
sg65
g61
(g62
(I0
tS'b'
tRp992
(I1
(I3
tg67
I00
S'\x01\x01\x01'
tbsg68
I00
sbatRp993
a(dp994
g60
g61
(g62
(I0
tS'b'
tRp995
(I1
(I0
tg6
I00
S''
tbsg64
I00
sg65
g61
(g62
(I0
tS'b'
tRp996
(I1
(I0
tg67
I00
S''
tbsg68
I00
sag4
(g6
S'`#\xfe5\xe2_\xc3?'
tRp997
aa(lp998
g4
(g6
S"X'U\xc6\xb0J\xc0@"
tRp999
ag8
(g9
g10
(lp1000
g8
(g12
g13
NtRp1001
(dp1002
g16
g8
(g17
g13
NtRp1003
(dp1004
g20
F5
sg21
(dp1005
g20
(F5
g23
tp1006
sg25
(F20.755266780473114
g23
tp1007
sg27
(F4
g23
tp1008
ssg27
F4
sg29
I3
sg25
F20.755266780473114
sg30
g32
sg41
g42
sg48
g49
sg53
g54
sbsg60
g61
(g62
(I0
tS'b'
tRp1009
(I1
(I3
tg6
I00
S'\xb1\xae\x90\x1ew\x08\xf7?\x0bu\x1bg\xca\xea\xf3\xbf26/\xbb\x1b%\xe1@'
tbsg64
I01
sg65
g61
(g62
(I0
tS'b'
tRp1010
(I1
(I3
tg67
I00
S'\x01\x01\x01'
tbsg68
I00
sbag8
(g12
g13
NtRp1011
(dp1012
g16
g1003
sg60
g61
(g62
(I0
tS'b'
tRp1013
(I1
(I3
tg6
I00
S'\xf3\x13W\x1b`\x80\x03@8\x12e\xb4\xd7g\xee\xbf\xd7E\xfd\xd7u\xc0\xf2@'
tbsg64
I01
sg65
g61
(g62
(I0
tS'b'
tRp1014
(I1
(I3
tg67
I00
S'\x01\x01\x01'
tbsg68
I00
sbag8
(g12
g13
NtRp1015
(dp1016
g16
g1003
sg60
g61
(g62
(I0
tS'b'
tRp1017
(I1
(I3
tg6
I00
S'\x1e\xc95\xca\xfc\xc6\x06@\x0e\xa9\x07\r>\xb9\xf6\xbf\x92\xcc\xee\xc7ra\xd5@'
tbsg64
I01
sg65
g61
(g62
(I0
tS'b'
tRp1018
(I1
(I3
tg67
I00
S'\x01\x01\x01'
tbsg68
I00
sbag8
(g12
g13
NtRp1019
(dp1020
g16
g1003
sg60
g61
(g62
(I0
tS'b'
tRp1021
(I1
(I3
tg6
I00
S'\x92\x82\xe07\xa5\xe9\x0c@\xc4|\xffy\xb8\x9a\xef\xbf\x80\x83\x81\xd2f\xe8\xf1@'
tbsg64
I01
sg65
g61
(g62
(I0
tS'b'
tRp1022
(I1
(I3
tg67
I00
S'\x01\x01\x01'
tbsg68
I00
sbag8
(g12
g13
NtRp1023
(dp1024
g16
g1003
sg60
g61
(g62
(I0
tS'b'
tRp1025
(I1
(I3
tg6
I00
S't-\x805\xc7w\x10@e\xe5\x1f\xbc0\xa7\xec\xbfx\x81\xd5\x91\xc7"\xed@'
tbsg64
I01
sg65
g61
(g62
(I0
tS'b'
tRp1026
(I1
(I3
tg67
I00
S'\x01\x01\x01'
tbsg68
I00
sbag8
(g12
g13
NtRp1027
(dp1028
g16
g1003
sg60
g61
(g62
(I0
tS'b'
tRp1029
(I1
(I3
tg6
I00
S'\xc4\xce\x86YN\x1d\x12@\x05\xc5*\xd9\n\xe8\xf4\xbf\x90\xd9\xc4\xba\xc6A\xef@'
tbsg64
I01
sg65
g61
(g62
(I0
tS'b'
tRp1030
(I1
(I3
tg67
I00
S'\x01\x01\x01'
tbsg68
I00
sbag8
(g12
g13
NtRp1031
(dp1032
g16
g1003
sg60
g61
(g62
(I0
tS'b'
tRp1033
(I1
(I3
tg6
I00
S'{\x9e\x8aY\xfc\x0c\x13@\x1d6\xf6\xf6f\xcf\xf4\xbfzD\x01ir\xa8\xdd@'
tbsg64
I01
sg65
g61
(g62
(I0
tS'b'
tRp1034
(I1
(I3
tg67
I00
S'\x01\x01\x01'
tbsg68
I00
sbag8
(g12
g13
NtRp1035
(dp1036
g16
g1003
sg60
g61
(g62
(I0
tS'b'
tRp1037
(I1
(I3
tg6
I00
S'8\xeb\x11\x84B1\x16@\xc6\xef(J\xa1 \xf9?\xf0\xc6\t\xa1\x15\xed\tA'
tbsg64
I01
sg65
g61
(g62
(I0
tS'b'
tRp1038
(I1
(I3
tg67
I00
S'\x01\x01\x01'
tbsg68
I00
sbag8
(g12
g13
NtRp1039
(dp1040
g16
g1003
sg60
g61
(g62
(I0
tS'b'
tRp1041
(I1
(I3
tg6
I00
S'\xe3\x93\xd8W\x1dv\x18@\xd0\x17D\x8d\x1a\xd4\xf2\xbf\x08\xe7h@\xc6\x16\xeb@'
tbsg64
I01
sg65
g61
(g62
(I0
tS'b'
tRp1042
(I1
(I3
tg67
I00
S'\x01\x01\x01'
tbsg68
I00
sbag8
(g12
g13
NtRp1043
(dp1044
g16
g1003
sg60
g61
(g62
(I0
tS'b'
tRp1045
(I1
(I3
tg6
I00
S'6\xcb\xcaZA\xd7\x1a@OV\xc8\xb1N\xb8\xd5?\x1ep^\xc38\x91\x07A'
tbsg64
I01
sg65
g61
(g62
(I0
tS'b'
tRp1046
(I1
(I3
tg67
I00
S'\x01\x01\x01'
tbsg68
I00
sbatRp1047
a(dp1048
g60
g61
(g62
(I0
tS'b'
tRp1049
(I1
(I0
tg6
I00
S''
tbsg64
I00
sg65
g61
(g62
(I0
tS'b'
tRp1050
(I1
(I0
tg67
I00
S''
tbsg68
I00
sag4
(g6
S'`#\xfe5\xe2_\xc3?'
tRp1051
aa(lp1052
g4
(g6
S'\xa7~\xcf-\xb1^\xc1@'
tRp1053
ag8
(g9
g10
(lp1054
g8
(g12
g13
NtRp1055
(dp1056
g16
g8
(g17
g13
NtRp1057
(dp1058
g20
F5
sg21
(dp1059
g20
(F5
g23
tp1060
sg25
(F20.755266780473114
g23
tp1061
sg27
(F4
g23
tp1062
ssg27
F4
sg29
I3
sg25
F20.755266780473114
sg30
g32
sg41
g42
sg48
g49
sg53
g54
sbsg60
g61
(g62
(I0
tS'b'
tRp1063
(I1
(I3
tg6
I00
S'\xb8\x19\xf4\x98\t\t\xf7?\xab\x07\xc2\x00|\xd8\xf3\xbf"\x82?\x85%\x1f\xe1@'
tbsg64
I01
sg65
g61
(g62
(I0
tS'b'
tRp1064
(I1
(I3
tg67
I00
S'\x01\x01\x01'
tbsg68
I00
sbag8
(g12
g13
NtRp1065
(dp1066
g16
g1057
sg60
g61
(g62
(I0
tS'b'
tRp1067
(I1
(I3
tg6
I00
S'9\x9f\xd4N\t\x82\x03@\xa0\x98\x0e\xd4\xd2l\xee\xbfU\xf4\x1bO\xf7\xbf\xf2@'
tbsg64
I01
sg65
g61
(g62
(I0
tS'b'
tRp1068
(I1
(I3
tg67
I00
S'\x01\x01\x01'
tbsg68
I00
sbag8
(g12
g13
NtRp1069
(dp1070
g16
g1057
sg60
g61
(g62
(I0
tS'b'
tRp1071
(I1
(I3
tg6
I00
S'\xdc\xc1\xf0\xc1\x87\xc4\x06@\x11>\xb4k\xf0\xa9\xf6\xbf3,\x16\x1c\xdcs\xd5@'
tbsg64
I01
sg65
g61
(g62
(I0
tS'b'
tRp1072
(I1
(I3
tg67
I00
S'\x01\x01\x01'
tbsg68
I00
sbag8
(g12
g13
NtRp1073
(dp1074
g16
g1057
sg60
g61
(g62
(I0
tS'b'
tRp1075
(I1
(I3
tg6
I00
S'Ld\xd7\x08\x81\xea\x0c@\xdd\n\n\x13O_\xef\xbf\xcct\x12\xe9\xec\xf3\xf1@'
tbsg64
I01
sg65
g61
(g62
(I0
tS'b'
tRp1076
(I1
(I3
tg67
I00
S'\x01\x01\x01'
tbsg68
I00
sbag8
(g12
g13
NtRp1077
(dp1078
g16
g1057
sg60
g61
(g62
(I0
tS'b'
tRp1079
(I1
(I3
tg6
I00
S'\x82\x00\x89\xa6\xebt\x10@H\xf03\xc3\x188\xee\xbf\xe3~\x19\x98\x92\x7f\xec@'
tbsg64
I01
sg65
g61
(g62
(I0
tS'b'
tRp1080
(I1
(I3
tg67
I00
S'\x01\x01\x01'
tbsg68
I00
sbag8
(g12
g13
NtRp1081
(dp1082
g16
g1057
sg60
g61
(g62
(I0
tS'b'
tRp1083
(I1
(I3
tg6
I00
S'\x99y\x00\xe7\xd2#\x12@1\x8e\xf6\xf4\x9aP\xf2\xbfB1b\x10uT\xf1@'
tbsg64
I01
sg65
g61
(g62
(I0
tS'b'
tRp1084
(I1
(I3
tg67
I00
S'\x01\x01\x01'
tbsg68
I00
sbag8
(g12
g13
NtRp1085
(dp1086
g16
g1057
sg60
g61
(g62
(I0
tS'b'
tRp1087
(I1
(I3
tg6
I00
S'\xdeyPF:-\x13@G\x13\xbb\xce\xdc\xf6\xf7\xbf\xe9\xd4\x99\x10\x9a\xcd\xd3@'
tbsg64
I01
sg65
g61
(g62
(I0
tS'b'
tRp1088
(I1
(I3
tg67
I00
S'\x01\x01\x01'
tbsg68
I00
sbag8
(g12
g13
NtRp1089
(dp1090
g16
g1057
sg60
g61
(g62
(I0
tS'b'
tRp1091
(I1
(I3
tg6
I00
S'<yfU\x912\x16@r\xec}\x12\xf6 \xf9?\\i\x8f\xbd(\xf5\tA'
tbsg64
I01
sg65
g61
(g62
(I0
tS'b'
tRp1092
(I1
(I3
tg67
I00
S'\x01\x01\x01'
tbsg68
I00
sbag8
(g12
g13
NtRp1093
(dp1094
g16
g1057
sg60
g61
(g62
(I0
tS'b'
tRp1095
(I1
(I3
tg6
I00
S'8\xed\x8b^;v\x18@\t\x1f=\xa2\x1b9\xf3\xbf\xa0x\x97Mo\x8b\xea@'
tbsg64
I01
sg65
g61
(g62
(I0
tS'b'
tRp1096
(I1
(I3
tg67
I00
S'\x01\x01\x01'
tbsg68
I00
sbag8
(g12
g13
NtRp1097
(dp1098
g16
g1057
sg60
g61
(g62
(I0
tS'b'
tRp1099
(I1
(I3
tg6
I00
S',v\xd4\x0f\xcc\xd6\x1a@\x1aeF\x9d\xee\xd5\xd6?\x9f\x14)ng\xa9\x07A'
tbsg64
I01
sg65
g61
(g62
(I0
tS'b'
tRp1100
(I1
(I3
tg67
I00
S'\x01\x01\x01'
tbsg68
I00
sbatRp1101
a(dp1102
g60
g61
(g62
(I0
tS'b'
tRp1103
(I1
(I0
tg6
I00
S''
tbsg64
I00
sg65
g61
(g62
(I0
tS'b'
tRp1104
(I1
(I0
tg67
I00
S''
tbsg68
I00
sag4
(g6
S'`#\xfe5\xe2_\xc3?'
tRp1105
aa(lp1106
g4
(g6
S'\xf7\xd5I\x95\xb1r\xc2@'
tRp1107
ag8
(g9
g10
(lp1108
g8
(g12
g13
NtRp1109
(dp1110
g16
g8
(g17
g13
NtRp1111
(dp1112
g20
F5
sg21
(dp1113
g20
(F5
g23
tp1114
sg25
(F20.755266780473114
g23
tp1115
sg27
(F4
g23
tp1116
ssg27
F4
sg29
I3
sg25
F20.755266780473114
sg30
g32
sg41
g42
sg48
g49
sg53
g54
sbsg60
g61
(g62
(I0
tS'b'
tRp1117
(I1
(I3
tg6
I00
S'$\x05\x84\x95\x16\x08\xf7?\xfb\xf7\xc9y\x93\n\xf4\xbf\xf4%U\xfb\xb0\x0c\xe1@'
tbsg64
I01
sg65
g61
(g62
(I0
tS'b'
tRp1118
(I1
(I3
tg67
I00
S'\x01\x01\x01'
tbsg68
I00
sbag8
(g12
g13
NtRp1119
(dp1120
g16
g1111
sg60
g61
(g62
(I0
tS'b'
tRp1121
(I1
(I3
tg6
I00
S'\xe0\xf0.T\xef~\x03@\x16\xda\xd86bY\xee\xbf\x0e\xb1\x98\x8b\xff\xc1\xf2@'
tbsg64
I01
sg65
g61
(g62
(I0
tS'b'
tRp1122
(I1
(I3
tg67
I00
S'\x01\x01\x01'
tbsg68
I00
sbag8
(g12
g13
NtRp1123
(dp1124
g16
g1111
sg60
g61
(g62
(I0
tS'b'
tRp1125
(I1
(I3
tg6
I00
S'\x06\xbc\x02F7\xc9\x06@\xf7\xf3\xa1\xf6\xf8\xa2\xf6\xbf\xf6o\x92\x07\xe5\xb2\xd4@'
tbsg64
I01
sg65
g61
(g62
(I0
tS'b'
tRp1126
(I1
(I3
tg67
I00
S'\x01\x01\x01'
tbsg68
I00
sbag8
(g12
g13
NtRp1127
(dp1128
g16
g1111
sg60
g61
(g62
(I0
tS'b'
tRp1129
(I1
(I3
tg6
I00
S'\x02\x84\xaa\xd5\xbf\xdc\x0c@\x88\x8b\xbd\x9b\x18\xed\xf0\xbf\x89\xf1\xcds\x95\x14\xf1@'
tbsg64
I01
sg65
g61
(g62
(I0
tS'b'
tRp1130
(I1
(I3
tg67
I00
S'\x01\x01\x01'
tbsg68
I00
sbag8
(g12
g13
NtRp1131
(dp1132
g16
g1111
sg60
g61
(g62
(I0
tS'b'
tRp1133
(I1
(I3
tg6
I00
S'y\xec;E\xa2u\x10@\xd8\xa0\xf5\x85\x06\xe0\xf4\xbf\xd5q\xe0E\x82\x96\xe6@'
tbsg64
I01
sg65
g61
(g62
(I0
tS'b'
tRp1134
(I1
(I3
tg67
I00
S'\x01\x01\x01'
tbsg68
I00
sbag8
(g12
g13
NtRp1135
(dp1136
g16
g1111
sg60
g61
(g62
(I0
tS'b'
tRp1137
(I1
(I3
tg6
I00
S'd\xe2q\xaf.D\x12@5@\xb1\xbe\xbdr\xe1\xbf\x92\x9e\x0f\x8en\x84\xf9@'
tbsg64
I01
sg65
g61
(g62
(I0
tS'b'
tRp1138
(I1
(I3
tg67
I00
S'\x01\x01\x01'
tbsg68
I00
sbag8
(g12
g13
NtRp1139
(dp1140
g16
g1111
sg60
g61
(g62
(I0
tS'b'
tRp1141
(I1
(I3
tg6
I00
S'<Su)y\xcd\x15@G\xf1\x97!\x85\xdb\xc1\xbf\xd3jiE\x9eY\x02A'
tbsg64
I01
sg65
g61
(g62
(I0
tS'b'
tRp1142
(I1
(I3
tg67
I00
S'\x01\x01\x01'
tbsg68
I00
sbag8
(g12
g13
NtRp1143
(dp1144
g16
g1111
sg60
g61
(g62
(I0
tS'b'
tRp1145
(I1
(I3
tg6
I00
S'\x8b:\xaf:\x04N\x17@\x08)"o\xee\xb8\xf6\xbfy\x8c\xc5\xa3\x9d/\xe3@'
tbsg64
I01
sg65
g61
(g62
(I0
tS'b'
tRp1146
(I1
(I3
tg67
I00
S'\x01\x01\x01'
tbsg68
I00
sbag8
(g12
g13
NtRp1147
(dp1148
g16
g1111
sg60
g61
(g62
(I0
tS'b'
tRp1149
(I1
(I3
tg6
I00
S'H\x84\xc5\x84Zf\x18@?|p\xab\x99\xca\xf1\xbf\xdf\xb7\x8d\x89m\xf4\xf1@'
tbsg64
I01
sg65
g61
(g62
(I0
tS'b'
tRp1150
(I1
(I3
tg67
I00
S'\x01\x01\x01'
tbsg68
I00
sbag8
(g12
g13
NtRp1151
(dp1152
g16
g1111
sg60
g61
(g62
(I0
tS'b'
tRp1153
(I1
(I3
tg6
I00
S'5o\xad\xdcA\xd4\x1a@\x15\x8eR\xc1rY\xd7?\xb4L\xe2<\x89\xca\x07A'
tbsg64
I01
sg65
g61
(g62
(I0
tS'b'
tRp1154
(I1
(I3
tg67
I00
S'\x01\x01\x01'
tbsg68
I00
sbatRp1155
a(dp1156
g60
g61
(g62
(I0
tS'b'
tRp1157
(I1
(I0
tg6
I00
S''
tbsg64
I00
sg65
g61
(g62
(I0
tS'b'
tRp1158
(I1
(I0
tg67
I00
S''
tbsg68
I00
sag4
(g6
S'`#\xfe5\xe2_\xc3?'
tRp1159
aa(lp1160
g4
(g6
S'F-\xc4\xfc\xb1\x86\xc3@'
tRp1161
ag8
(g9
g10
(lp1162
g8
(g12
g13
NtRp1163
(dp1164
g16
g8
(g17
g13
NtRp1165
(dp1166
g20
F5
sg21
(dp1167
g20
(F5
g23
tp1168
sg25
(F20.755266780473114
g23
tp1169
sg27
(F4
g23
tp1170
ssg27
F4
sg29
I3
sg25
F20.755266780473114
sg30
g32
sg41
g42
sg48
g49
sg53
g54
sbsg60
g61
(g62
(I0
tS'b'
tRp1171
(I1
(I3
tg6
I00
S'\xdc\x88\x17\xb4\xe6\n\xf7?y\xbd\xac\xe0\x18\x01\xf4\xbf\x9f\xa6\xad\xe3\x1c\x18\xe1@'
tbsg64
I01
sg65
g61
(g62
(I0
tS'b'
tRp1172
(I1
(I3
tg67
I00
S'\x01\x01\x01'
tbsg68
I00
sbag8
(g12
g13
NtRp1173
(dp1174
g16
g1165
sg60
g61
(g62
(I0
tS'b'
tRp1175
(I1
(I3
tg6
I00
S'\xb2/\xbe\x8e\x87~\x03@\x8e\xae\x90G\xe1b\xee\xbfc\x983\xef\x86\xc0\xf2@'
tbsg64
I01
sg65
g61
(g62
(I0
tS'b'
tRp1176
(I1
(I3
tg67
I00
S'\x01\x01\x01'
tbsg68
I00
sbag8
(g12
g13
NtRp1177
(dp1178
g16
g1165
sg60
g61
(g62
(I0
tS'b'
tRp1179
(I1
(I3
tg6
I00
S'~WL\xff%\xc7\x06@d\xb5\x8c\x90#\xba\xf6\xbf\xab\x95F\x80\xb3\xad\xd4@'
tbsg64
I01
sg65
g61
(g62
(I0
tS'b'
tRp1180
(I1
(I3
tg67
I00
S'\x01\x01\x01'
tbsg68
I00
sbag8
(g12
g13
NtRp1181
(dp1182
g16
g1165
sg60
g61
(g62
(I0
tS'b'
tRp1183
(I1
(I3
tg6
I00
S'\xc3\xdex\x9a\x17\xdc\x0c@+l\x87\xd8\x9a\x12\xf1\xbf\xb9\xc5\xae\xf0\xfb\xff\xf0@'
tbsg64
I01
sg65
g61
(g62
(I0
tS'b'
tRp1184
(I1
(I3
tg67
I00
S'\x01\x01\x01'
tbsg68
I00
sbag8
(g12
g13
NtRp1185
(dp1186
g16
g1165
sg60
g61
(g62
(I0
tS'b'
tRp1187
(I1
(I3
tg6
I00
S'\xb8\xf1+R~w\x10@\x04\xdd|\xd3\xe8\xbe\xf4\xbf,\xf1\x1e\xc0\xfa\xe5\xe6@'
tbsg64
I01
sg65
g61
(g62
(I0
tS'b'
tRp1188
(I1
(I3
tg67
I00
S'\x01\x01\x01'
tbsg68
I00
sbag8
(g12
g13
NtRp1189
(dp1190
g16
g1165
sg60
g61
(g62
(I0
tS'b'
tRp1191
(I1
(I3
tg6
I00
S'\xf0\x14\xc2\x8ft;\x12@\xdds\xdb\xab\x8b\x1b\xe4\xbf\xc7\x04\xc24\x105\xf8@'
tbsg64
I01
sg65
g61
(g62
(I0
tS'b'
tRp1192
(I1
(I3
tg67
I00
S'\x01\x01\x01'
tbsg68
I00
sbag8
(g12
g13
NtRp1193
(dp1194
g16
g1165
sg60
g61
(g62
(I0
tS'b'
tRp1195
(I1
(I3
tg6
I00
S'T\xd3\xdf\xb6\x7f1\x16@$"\xa6\x96\xfa!\xf9?\x97Yg\n\xe2!\nA'
tbsg64
I01
sg65
g61
(g62
(I0
tS'b'
tRp1196
(I1
(I3
tg67
I00
S'\x01\x01\x01'
tbsg68
I00
sbag8
(g12
g13
NtRp1197
(dp1198
g16
g1165
sg60
g61
(g62
(I0
tS'b'
tRp1199
(I1
(I3
tg6
I00
S'\x93o\x80 \xccr\x18@@}\x04\xc3\xc4\xc5\xf5\xbf\x18:\x88\x84\x87\xce\xe8@'
tbsg64
I01
sg65
g61
(g62
(I0
tS'b'
tRp1200
(I1
(I3
tg67
I00
S'\x01\x01\x01'
tbsg68
I00
sbag8
(g12
g13
NtRp1201
(dp1202
g16
g1165
sg60
g61
(g62
(I0
tS'b'
tRp1203
(I1
(I3
tg6
I00
S'1\xe36\xb3\xa8\xd3\x1a@d\xad\x86\xc8\xc5g\xdb?\x13~\xf3\xf6\xdc\x08\x08A'
tbsg64
I01
sg65
g61
(g62
(I0
tS'b'
tRp1204
(I1
(I3
tg67
I00
S'\x01\x01\x01'
tbsg68
I00
sbatRp1205
a(dp1206
g60
g61
(g62
(I0
tS'b'
tRp1207
(I1
(I0
tg6
I00
S''
tbsg64
I00
sg65
g61
(g62
(I0
tS'b'
tRp1208
(I1
(I0
tg67
I00
S''
tbsg68
I00
sag4
(g6
S'`#\xfe5\xe2_\xc3?'
tRp1209
aa(lp1210
g4
(g6
S'\x95\x84>d\xb2\x9a\xc4@'
tRp1211
ag8
(g9
g10
(lp1212
g8
(g12
g13
NtRp1213
(dp1214
g16
g8
(g17
g13
NtRp1215
(dp1216
g20
F5
sg21
(dp1217
g20
(F5
g23
tp1218
sg25
(F20.755266780473114
g23
tp1219
sg27
(F4
g23
tp1220
ssg27
F4
sg29
I3
sg25
F20.755266780473114
sg30
g32
sg41
g42
sg48
g49
sg53
g54
sbsg60
g61
(g62
(I0
tS'b'
tRp1221
(I1
(I3
tg6
I00
S'\xd6\xb6$8Z\x08\xf7?\xfe+\x06\xd1\xaf\xf9\xf4\xbf\xe8\xef;V\xb4W\xe0@'
tbsg64
I01
sg65
g61
(g62
(I0
tS'b'
tRp1222
(I1
(I3
tg67
I00
S'\x01\x01\x01'
tbsg68
I00
sbag8
(g12
g13
NtRp1223
(dp1224
g16
g1215
sg60
g61
(g62
(I0
tS'b'
tRp1225
(I1
(I3
tg6
I00
S'S4\xecS\xb3~\x03@\xe5\xa2\xfa1<b\xee\xbf\\HPt\x8a\xbf\xf2@'
tbsg64
I01
sg65
g61
(g62
(I0
tS'b'
tRp1226
(I1
(I3
tg67
I00
S'\x01\x01\x01'
tbsg68
I00
sbag8
(g12
g13
NtRp1227
(dp1228
g16
g1215
sg60
g61
(g62
(I0
tS'b'
tRp1229
(I1
(I3
tg6
I00
S'\xea\xb0?\x83d\xcb\x06@\xa8+\xff\x16\xaew\xf6\xbf\x95@LV\xe8\xa8\xd4@'
tbsg64
I01
sg65
g61
(g62
(I0
tS'b'
tRp1230
(I1
(I3
tg67
I00
S'\x01\x01\x01'
tbsg68
I00
sbag8
(g12
g13
NtRp1231
(dp1232
g16
g1215
sg60
g61
(g62
(I0
tS'b'
tRp1233
(I1
(I3
tg6
I00
S'-\xa3\x02\xe6\x81\xe5\x0c@\xad\xfe\xbd\x96\x9e<\xf0\xbf\xbe\xb7\xbdv/\x9a\xf1@'
tbsg64
I01
sg65
g61
(g62
(I0
tS'b'
tRp1234
(I1
(I3
tg67
I00
S'\x01\x01\x01'
tbsg68
I00
sbag8
(g12
g13
NtRp1235
(dp1236
g16
g1215
sg60
g61
(g62
(I0
tS'b'
tRp1237
(I1
(I3
tg6
I00
S'\x11V\x18\x08=}\x10@\xb4\xd9YW6r\xee\xbf\xce\x89\x8d\xda\x81\xa8\xec@'
tbsg64
I01
sg65
g61
(g62
(I0
tS'b'
tRp1238
(I1
(I3
tg67
I00
S'\x01\x01\x01'
tbsg68
I00
sbag8
(g12
g13
NtRp1239
(dp1240
g16
g1215
sg60
g61
(g62
(I0
tS'b'
tRp1241
(I1
(I3
tg6
I00
S'rk\x0c\x8d\xf1\x03\x12@\x9e\xd4\nw\t\xdb\xf6\xbf\xee;LF\x1d\xb7\xe9@'
tbsg64
I01
sg65
g61
(g62
(I0
tS'b'
tRp1242
(I1
(I3
tg67
I00
S'\x01\x01\x01'
tbsg68
I00
sbag8
(g12
g13
NtRp1243
(dp1244
g16
g1215
sg60
g61
(g62
(I0
tS'b'
tRp1245
(I1
(I3
tg6
I00
S'\xfa)\xbfhV\xd9\x12@B\x97\xebEi\x07\xed\xbf\x93\x17\xb8\xe2\x1c\xda\xe6@'
tbsg64
I01
sg65
g61
(g62
(I0
tS'b'
tRp1246
(I1
(I3
tg67
I00
S'\x01\x01\x01'
tbsg68
I00
sbag8
(g12
g13
NtRp1247
(dp1248
g16
g1215
sg60
g61
(g62
(I0
tS'b'
tRp1249
(I1
(I3
tg6
I00
S'(5$\xdf\x0c5\x16@D\x9aS\xc5\xf7!\xf9?\xd2\xd0+\x9e\xce\xf2\tA'
tbsg64
I01
sg65
g61
(g62
(I0
tS'b'
tRp1250
(I1
(I3
tg67
I00
S'\x01\x01\x01'
tbsg68
I00
sbag8
(g12
g13
NtRp1251
(dp1252
g16
g1215
sg60
g61
(g62
(I0
tS'b'
tRp1253
(I1
(I3
tg6
I00
S'hK\x9b\x90 w\x18@\xf9\xc6J\xf1\xd7T\xf3\xbf\x9e\xa5\xad\xab\xdcg\xea@'
tbsg64
I01
sg65
g61
(g62
(I0
tS'b'
tRp1254
(I1
(I3
tg67
I00
S'\x01\x01\x01'
tbsg68
I00
sbag8
(g12
g13
NtRp1255
(dp1256
g16
g1215
sg60
g61
(g62
(I0
tS'b'
tRp1257
(I1
(I3
tg6
I00
S'\x86\x98\xd3y\xc7\xd6\x1a@\xdd\xe8\xf1g\xc2p\xd6?\xa9\x95\xa02E\xa1\x07A'
tbsg64
I01
sg65
g61
(g62
(I0
tS'b'
tRp1258
(I1
(I3
tg67
I00
S'\x01\x01\x01'
tbsg68
I00
sbatRp1259
a(dp1260
g60
g61
(g62
(I0
tS'b'
tRp1261
(I1
(I0
tg6
I00
S''
tbsg64
I00
sg65
g61
(g62
(I0
tS'b'
tRp1262
(I1
(I0
tg67
I00
S''
tbsg68
I00
sag4
(g6
S'`#\xfe5\xe2_\xc3?'
tRp1263
aa(lp1264
g4
(g6
S'\xe4\xdb\xb8\xcb\xb2\xae\xc5@'
tRp1265
ag8
(g9
g10
(lp1266
g8
(g12
g13
NtRp1267
(dp1268
g16
g8
(g17
g13
NtRp1269
(dp1270
g20
F5
sg21
(dp1271
g20
(F5
g23
tp1272
sg25
(F20.755266780473114
g23
tp1273
sg27
(F4
g23
tp1274
ssg27
F4
sg29
I3
sg25
F20.755266780473114
sg30
g32
sg41
g42
sg48
g49
sg53
g54
sbsg60
g61
(g62
(I0
tS'b'
tRp1275
(I1
(I3
tg6
I00
S'aF\x98\x8e1\r\xf7?\xf2\xd9*<\xdfm\xf3\xbf\xdc\xfe\xd8\x89\xedO\xe1@'
tbsg64
I01
sg65
g61
(g62
(I0
tS'b'
tRp1276
(I1
(I3
tg67
I00
S'\x01\x01\x01'
tbsg68
I00
sbag8
(g12
g13
NtRp1277
(dp1278
g16
g1269
sg60
g61
(g62
(I0
tS'b'
tRp1279
(I1
(I3
tg6
I00
S'\xf1\xca]"t\x82\x03@\\\xaf\xfb\x8a\xc0\xf3\xed\xbf|\x10q\x84\x92\xdc\xf2@'
tbsg64
I01
sg65
g61
(g62
(I0
tS'b'
tRp1280
(I1
(I3
tg67
I00
S'\x01\x01\x01'
tbsg68
I00
sbag8
(g12
g13
NtRp1281
(dp1282
g16
g1269
sg60
g61
(g62
(I0
tS'b'
tRp1283
(I1
(I3
tg6
I00
S'\xe7h\x8e\x8b\xb6\xca\x06@\x02\xa3\x81S\xd1~\xf6\xbf)B\xf4-\xec\xc3\xd4@'
tbsg64
I01
sg65
g61
(g62
(I0
tS'b'
tRp1284
(I1
(I3
tg67
I00
S'\x01\x01\x01'
tbsg68
I00
sbag8
(g12
g13
NtRp1285
(dp1286
g16
g1269
sg60
g61
(g62
(I0
tS'b'
tRp1287
(I1
(I3
tg6
I00
S'\xd2\x13\x0b)\xc7\xe3\x0c@R\xb19Tz"\xed\xbf\x92\xe7e\xac.\xaa\xf2@'
tbsg64
I01
sg65
g61
(g62
(I0
tS'b'
tRp1288
(I1
(I3
tg67
I00
S'\x01\x01\x01'
tbsg68
I00
sbag8
(g12
g13
NtRp1289
(dp1290
g16
g1269
sg60
g61
(g62
(I0
tS'b'
tRp1291
(I1
(I3
tg6
I00
S'\xc7W\xeb\xff\x93q\x10@\x01\x8b\x15A\xd6e\xf2\xbffE5n\xb4\xca\xe8@'
tbsg64
I01
sg65
g61
(g62
(I0
tS'b'
tRp1292
(I1
(I3
tg67
I00
S'\x01\x01\x01'
tbsg68
I00
sbag8
(g12
g13
NtRp1293
(dp1294
g16
g1269
sg60
g61
(g62
(I0
tS'b'
tRp1295
(I1
(I3
tg6
I00
S'\x14\xa6\xa0\xb1(<\x12@@Y\x83|Aq\xe5\xbf\xd8#]>w\xa4\xf7@'
tbsg64
I01
sg65
g61
(g62
(I0
tS'b'
tRp1296
(I1
(I3
tg67
I00
S'\x01\x01\x01'
tbsg68
I00
sbag8
(g12
g13
NtRp1297
(dp1298
g16
g1269
sg60
g61
(g62
(I0
tS'b'
tRp1299
(I1
(I3
tg6
I00
S"w\xbf\xe1\xda:2\x16@\x9c/\xab\xf5\x80!\xf9?9\xa6j\r\xa6'\nA"
tbsg64
I01
sg65
g61
(g62
(I0
tS'b'
tRp1300
(I1
(I3
tg67
I00
S'\x01\x01\x01'
tbsg68
I00
sbag8
(g12
g13
NtRp1301
(dp1302
g16
g1269
sg60
g61
(g62
(I0
tS'b'
tRp1303
(I1
(I3
tg6
I00
S'\xd0\x03\x13 \xe4|\x18@P\xd1\xb9\xf0{E\xf4\xbf\x97#%_\xd4\x8a\xe9@'
tbsg64
I01
sg65
g61
(g62
(I0
tS'b'
tRp1304
(I1
(I3
tg67
I00
S'\x01\x01\x01'
tbsg68
I00
sbag8
(g12
g13
NtRp1305
(dp1306
g16
g1269
sg60
g61
(g62
(I0
tS'b'
tRp1307
(I1
(I3
tg6
I00
S'?\xf8\rM\xa3\xd6\x1a@\x16\xd1\xc4\x8dk\x1e\xd7?H\x11\n\x1aI\xb0\x07A'
tbsg64
I01
sg65
g61
(g62
(I0
tS'b'
tRp1308
(I1
(I3
tg67
I00
S'\x01\x01\x01'
tbsg68
I00
sbatRp1309
a(dp1310
g60
g61
(g62
(I0
tS'b'
tRp1311
(I1
(I0
tg6
I00
S''
tbsg64
I00
sg65
g61
(g62
(I0
tS'b'
tRp1312
(I1
(I0
tg67
I00
S''
tbsg68
I00
sag4
(g6
S'`#\xfe5\xe2_\xc3?'
tRp1313
aa(lp1314
g4
(g6
S'4333\xb3\xc2\xc6@'
tRp1315
ag8
(g9
g10
(lp1316
g8
(g12
g13
NtRp1317
(dp1318
g16
g8
(g17
g13
NtRp1319
(dp1320
g20
F5
sg21
(dp1321
g20
(F5
g23
tp1322
sg25
(F20.755266780473114
g23
tp1323
sg27
(F4
g23
tp1324
ssg27
F4
sg29
I3
sg25
F20.755266780473114
sg30
g32
sg41
g42
sg48
g49
sg53
g54
sbsg60
g61
(g62
(I0
tS'b'
tRp1325
(I1
(I3
tg6
I00
S'\xed)N\xac\xd5\x0e\xf7?\xe0\xdf\x7fx\x05\xa7\xf3\xbf\x14\x0f\xb5\x1f\x12k\xe1@'
tbsg64
I01
sg65
g61
(g62
(I0
tS'b'
tRp1326
(I1
(I3
tg67
I00
S'\x01\x01\x01'
tbsg68
I00
sbag8
(g12
g13
NtRp1327
(dp1328
g16
g1319
sg60
g61
(g62
(I0
tS'b'
tRp1329
(I1
(I3
tg6
I00
S'\x95|\xff\x83\xf7}\x03@\xf26;\xa0\xa1f\xee\xbf?r\x12\x14\x87\xbd\xf2@'
tbsg64
I01
sg65
g61
(g62
(I0
tS'b'
tRp1330
(I1
(I3
tg67
I00
S'\x01\x01\x01'
tbsg68
I00
sbag8
(g12
g13
NtRp1331
(dp1332
g16
g1319
sg60
g61
(g62
(I0
tS'b'
tRp1333
(I1
(I3
tg6
I00
S"'\xff\xbf\xa7\xb6\xc9\x06@^x\xfc\xcff\x9f\xf6\xbf\x17\x1e\x04\x1fY|\xd4@"
tbsg64
I01
sg65
g61
(g62
(I0
tS'b'
tRp1334
(I1
(I3
tg67
I00
S'\x01\x01\x01'
tbsg68
I00
sbag8
(g12
g13
NtRp1335
(dp1336
g16
g1319
sg60
g61
(g62
(I0
tS'b'
tRp1337
(I1
(I3
tg6
I00
S'\n\xc5IU\x02\xdd\x0c@\x8e@\x85J\xe5\xbb\xf0\xbfb\x1f+\x8f\x9aL\xf1@'
tbsg64
I01
sg65
g61
(g62
(I0
tS'b'
tRp1338
(I1
(I3
tg67
I00
S'\x01\x01\x01'
tbsg68
I00
sbag8
(g12
g13
NtRp1339
(dp1340
g16
g1319
sg60
g61
(g62
(I0
tS'b'
tRp1341
(I1
(I3
tg6
I00
S'\xe9\x978\xef\x18x\x10@\xe0\xd7\x9b\xb4\xf8\xd4\xf3\xbf\x9a%b\x0c9\xba\xe7@'
tbsg64
I01
sg65
g61
(g62
(I0
tS'b'
tRp1342
(I1
(I3
tg67
I00
S'\x01\x01\x01'
tbsg68
I00
sbag8
(g12
g13
NtRp1343
(dp1344
g16
g1319
sg60
g61
(g62
(I0
tS'b'
tRp1345
(I1
(I3
tg6
I00
S'\x7fg}[\x18:\x12@\x08\x1c+c\x1d\x02\xe5\xbf3N\n\x95\xb1\xd2\xf7@'
tbsg64
I01
sg65
g61
(g62
(I0
tS'b'
tRp1346
(I1
(I3
tg67
I00
S'\x01\x01\x01'
tbsg68
I00
sbag8
(g12
g13
NtRp1347
(dp1348
g16
g1319
sg60
g61
(g62
(I0
tS'b'
tRp1349
(I1
(I3
tg6
I00
S'"0w\x9e?1\x16@\x80\xb8cL\xfb!\xf9?\xb7\x08\x85\xd7\xce\x1e\nA'
tbsg64
I01
sg65
g61
(g62
(I0
tS'b'
tRp1350
(I1
(I3
tg67
I00
S'\x01\x01\x01'
tbsg68
I00
sbag8
(g12
g13
NtRp1351
(dp1352
g16
g1319
sg60
g61
(g62
(I0
tS'b'
tRp1353
(I1
(I3
tg6
I00
S'\x9a\r\x93~\xff|\x18@\xef\xaeY\x17\xcb\x06\xf4\xbf\xd3\xbbQ3\x16L\xea@'
tbsg64
I01
sg65
g61
(g62
(I0
tS'b'
tRp1354
(I1
(I3
tg67
I00
S'\x01\x01\x01'
tbsg68
I00
sbag8
(g12
g13
NtRp1355
(dp1356
g16
g1319
sg60
g61
(g62
(I0
tS'b'
tRp1357
(I1
(I3
tg6
I00
S'wx"\xa0\xbe\xd6\x1a@\x17\xee\xbf*\x10\xfc\xd4?\xcb,?J\xd3\x85\x07A'
tbsg64
I01
sg65
g61
(g62
(I0
tS'b'
tRp1358
(I1
(I3
tg67
I00
S'\x01\x01\x01'
tbsg68
I00
sbatRp1359
a(dp1360
g60
g61
(g62
(I0
tS'b'
tRp1361
(I1
(I0
tg6
I00
S''
tbsg64
I00
sg65
g61
(g62
(I0
tS'b'
tRp1362
(I1
(I0
tg67
I00
S''
tbsg68
I00
sag4
(g6
S'`#\xfe5\xe2_\xc3?'
tRp1363
aaaS"History written: Wed Jan 21 10:56:25 2015\nproduced by Luke\ndiffpy.srmise version 0.4a1-11\n##### PDF Peak Extraction\n## BaselineFunctions\n# BaselineFunction 0\nfunction='FromSequence'\nmodule='diffpy.srmise.mise.baselines.fromsequence'\nbase=None\ny=[-1475.0325650706627, -2950.0651301413254, -4425.0976952119881, -5900.1302602826509, -7375.1628253533127, -8850.1953904239745, -10325.227955494638, -11800.260520565302, -13275.293085635964, -14750.325650706625, -16225.358215777289, -17700.390780847953, -19175.423345918618, -20650.455910989276, -22125.488476059942, -23600.521041130603, -25075.553606201265, -26550.586171271931, -28025.459933459599, -29490.66450359999, -30922.864389112267, -32298.695523408274, -33596.022711102938, -34793.92402828217, -35872.675222770908, -36813.734114401064, -37599.724995279517, -38214.42303005611, -38643.368779986711, -38890.463187607907, -38978.523165803032, -38930.29758324947, -38767.462434741778, -38510.636440923663, -38179.39664801996, -37792.294027568765, -37366.869076153373, -36919.66741513431, -36465.762314723048, -36011.685031151355, -35557.60774757967, -35103.530464007978, -34649.453180436292, -34195.375896864593, -33741.298613292922, -33287.221329721207, -32833.144046149522, -32379.066762577819, -31924.989479006141, -31470.912195434459, -31016.83491186277, -30562.757628291063, -30108.680344719356, -29654.603061147711, -29200.525777575986, -28746.448494004322, -28292.371210432615, -27838.293926860926, -27384.216643289248, -26930.139359411234, -26474.542488478357, -26010.083575850655, -25528.358372275903, -25021.398910324362, -24481.667989050857, -23902.053658656267, -23275.863705149979, -22596.820135010832, -21859.053659849822, -21057.103538030915, -20189.157506289514, -19262.2608478449, -18284.582204221027, -17263.909088500266, -16207.653400662406, -15122.856942922259, -14016.196935068139, -12893.991529799485, -11762.205328065833, -10626.439769837914, -9490.3191584519027, -8354.1985470658783, -7218.0779356797575, -6081.9573242938068, -4945.8367129076605, -3809.7161015215393, -2673.5954901353934, -1537.4748787493209, -401.35426736339457, 734.76028191512512, 1862.3074495985777, 2947.158200990089, 3960.1884858314311, 4888.6048315275966, 5719.7202101002222, 6439.2477046714184, 7031.3497219455321, 7478.6872046947792, 7762.4688442382803, 7862.653161699448]\nx=[0.10000000000000001, 0.20000000000000001, 0.30000000000000004, 0.40000000000000002, 0.5, 0.59999999999999998, 0.70000000000000007, 0.80000000000000004, 0.90000000000000002, 1.0, 1.1000000000000001, 1.2000000000000002, 1.3000000000000003, 1.4000000000000001, 1.5000000000000002, 1.6000000000000001, 1.7000000000000002, 1.8000000000000003, 1.9000000000000001, 2.0, 2.1000000000000001, 2.2000000000000002, 2.3000000000000003, 2.4000000000000004, 2.5000000000000004, 2.6000000000000001, 2.7000000000000002, 2.8000000000000003, 2.9000000000000004, 3.0000000000000004, 3.1000000000000001, 3.2000000000000002, 3.3000000000000003, 3.4000000000000004, 3.5000000000000004, 3.6000000000000001, 3.7000000000000002, 3.8000000000000003, 3.9000000000000004, 4.0, 4.0999999999999996, 4.2000000000000002, 4.2999999999999998, 4.3999999999999995, 4.5, 4.5999999999999996, 4.7000000000000002, 4.7999999999999998, 4.9000000000000004, 5.0, 5.0999999999999996, 5.2000000000000002, 5.2999999999999998, 5.4000000000000004, 5.5, 5.5999999999999996, 5.7000000000000002, 5.7999999999999998, 5.9000000000000004, 6.0, 6.0999999999999996, 6.2000000000000002, 6.2999999999999998, 6.4000000000000004, 6.5, 6.5999999999999996, 6.7000000000000002, 6.7999999999999998, 6.9000000000000004, 7.0, 7.0999999999999996, 7.2000000000000002, 7.2999999999999998, 7.4000000000000004, 7.5, 7.5999999999999996, 7.7000000000000002, 7.7999999999999998, 7.9000000000000004, 8.0, 8.0999999999999996, 8.1999999999999993, 8.3000000000000007, 8.4000000000000004, 8.5, 8.5999999999999996, 8.6999999999999993, 8.8000000000000007, 8.9000000000000004, 9.0, 9.0999999999999996, 9.1999999999999993, 9.3000000000000007, 9.4000000000000004, 9.5, 9.5999999999999996, 9.7000000000000011, 9.8000000000000007, 9.9000000000000004, 10.0]\n\n## PeakFunctions\n# PeakFunction 0\nfunction='GaussianOverR'\nmodule='diffpy.srmise.mise.peaks.gaussianoverr'\nbase=None\nmaxwidth=0.69999999999999996\n\n# PeakFunction 1\nfunction='TerminationRipples'\nmodule='diffpy.srmise.mise.peaks.terminationripples'\nbase=0\nsupersample=5.0\nqmax=20.755266780473114\nextension=4.0\n\n# BaselineObject\nowner=0\npars=[]\nfree=[]\nremovable=False\nstatic_owner=False\n\n## InitialPeaks\n# MiseMetadata\npf=[0]\ncres=0.05\nModelEvaluator=AIC\nRange=[1.0, 7.25]\n# Metadata\nfilename='D:\\\\Workspaces\\\\MSU research\\\\diffpy.srmise\\\\diffpy\\\\srmise\\\\applications\\\\examples\\\\C60.gr'\nnyquist=True\nqmax=20.755266780473114\nqmax_reportedbypdf=21.299999\nqmax_fromdata=20.755266780473114\nscale=False\nsupersample=4.0\n\n##### start data\n#L x y dx dy edy\n0.01 18942.6 0 0 11653.4\n0.02 37722.7 0 0 11653.4\n0.03 56177.6 0 0 11653.4\n0.04 74143.9 0 0 11653.4\n0.05 91457.9 0 0 11653.4\n0.06 107956 0 0 11653.4\n0.07 123476 0 0 11653.4\n0.08 137856 0 0 11653.4\n0.09 150940 0 0 11653.4\n0.1 162578 0 0 11653.4\n0.11 172629 0 0 11653.4\n0.12 180964 0 0 11653.4\n0.13 187472 0 0 11653.4\n0.14 192060 0 0 11653.4\n0.15 194659 0 0 11653.4\n0.16 195226 0 0 11653.4\n0.17 193750 0 0 11653.4\n0.18 190254 0 0 11653.4\n0.19 184793 0 0 11653.4\n0.2 177460 0 0 11653.4\n0.21 168386 0 0 11653.4\n0.22 157737 0 0 11653.4\n0.23 145712 0 0 11653.4\n0.24 132543 0 0 11653.4\n0.25 118488 0 0 11653.4\n0.26 103827 0 0 11653.4\n0.27 88856.5 0 0 11653.4\n0.28 73881.6 0 0 11653.4\n0.29 59209 0 0 11653.4\n0.3 45139.3 0 0 11653.4\n0.31 31959.2 0 0 11653.4\n0.32 19933.4 0 0 11653.4\n0.33 9297.65 0 0 11653.4\n0.34 251.704 0 0 11653.4\n0.35 -7046.27 0 0 11653.4\n0.36 -12484.5 0 0 11653.4\n0.37 -16000.8 0 0 11653.4\n0.38 -17584.8 0 0 11653.4\n0.39 -17278 0 0 11653.4\n0.4 -15172.9 0 0 11653.4\n0.41 -11410.1 0 0 11653.4\n0.42 -6173.99 0 0 11653.4\n0.43 312.641 0 0 11653.4\n0.44 7795.7 0 0 11653.4\n0.45 15997.5 0 0 11653.4\n0.46 24625.2 0 0 11653.4\n0.47 33380 0 0 11653.4\n0.48 41966.4 0 0 11653.4\n0.49 50100.7 0 0 11653.4\n0.5 57520.3 0 0 11653.4\n0.51 63990.9 0 0 11653.4\n0.52 69313.7 0 0 11653.4\n0.53 73330.8 0 0 11653.4\n0.54 75929.5 0 0 11653.4\n0.55 77044.7 0 0 11653.4\n0.56 76660.3 0 0 11653.4\n0.57 74808.1 0 0 11653.4\n0.58 71565.9 0 0 11653.4\n0.59 67053.6 0 0 11653.4\n0.6 61428.1 0 0 11653.4\n0.61 54877.1 0 0 11653.4\n0.62 47611.7 0 0 11653.4\n0.63 39858.8 0 0 11653.4\n0.64 31853 0 0 11653.4\n0.65 23828 0 0 11653.4\n0.66 16008.6 0 0 11653.4\n0.67 8603.69 0 0 11653.4\n0.68 1798.99 0 0 11653.4\n0.69 -4248.35 0 0 11653.4\n0.7 -9414.3 0 0 11653.4\n0.71 -13611.1 0 0 11653.4\n0.72 -16789.1 0 0 11653.4\n0.73 -18936.8 0 0 11653.4\n0.74 -20079.9 0 0 11653.4\n0.75 -20278.6 0 0 11653.4\n0.76 -19624.1 0 0 11653.4\n0.77 -18233.7 0 0 11653.4\n0.78 -16245 0 0 11653.4\n0.79 -13810.2 0 0 11653.4\n0.8 -11089.1 0 0 11653.4\n0.81 -8242.85 0 0 11653.4\n0.82 -5427.21 0 0 11653.4\n0.83 -2786.99 0 0 11653.4\n0.84 -450.548 0 0 11653.4\n0.85 1474.5 0 0 11653.4\n0.86 2904.71 0 0 11653.4\n0.87 3783.01 0 0 11653.4\n0.88 4079.74 0 0 11653.4\n0.89 3792.54 0 0 11653.4\n0.9 2944.99 0 0 11653.4\n0.91 1584.28 0 0 11653.4\n0.92 -222.159 0 0 11653.4\n0.93 -2390.68 0 0 11653.4\n0.94 -4826.07 0 0 11653.4\n0.95 -7426.55 0 0 11653.4\n0.96 -10088.8 0 0 11653.4\n0.97 -12713 0 0 11653.4\n0.98 -15207.3 0 0 11653.4\n0.99 -17492 0 0 11653.4\n1 -19503 0 0 11653.4\n1.01 -21193.7 0 0 11653.4\n1.02 -22537 0 0 11653.4\n1.03 -23525.9 0 0 11653.4\n1.04 -24172 0 0 11653.4\n1.05 -24504.7 0 0 11653.4\n1.06 -24568.6 0 0 11653.4\n1.07 -24419.8 0 0 11653.4\n1.08 -24122.2 0 0 11653.4\n1.09 -23743.2 0 0 11653.4\n1.1 -23349 0 0 11653.4\n1.11 -23000.1 0 0 11653.4\n1.12 -22747 0 0 11653.4\n1.13 -22626 0 0 11653.4\n1.14 -22656.6 0 0 11653.4\n1.15 -22838.5 0 0 11653.4\n1.16 -23150.5 0 0 11653.4\n1.17 -23550 0 0 11653.4\n1.18 -23973.8 0 0 11653.4\n1.19 -24339.8 0 0 11653.4\n1.2 -24550.2 0 0 11653.4\n1.21 -24495 0 0 11653.4\n1.22 -24056.8 0 0 11653.4\n1.23 -23116.3 0 0 11653.4\n1.24 -21557.6 0 0 11653.4\n1.25 -19274.7 0 0 11653.4\n1.26 -16176.8 0 0 11653.4\n1.27 -12193.8 0 0 11653.4\n1.28 -7281.75 0 0 11653.4\n1.29 -1426.42 0 0 11653.4\n1.3 5353.3 0 0 11653.4\n1.31 13003.6 0 0 11653.4\n1.32 21435 0 0 11653.4\n1.33 30523.3 0 0 11653.4\n1.34 40111.4 0 0 11653.4\n1.35 50013.2 0 0 11653.4\n1.36 60017.9 0 0 11653.4\n1.37 69896.1 0 0 11653.4\n1.38 79406.9 0 0 11653.4\n1.39 88304.8 0 0 11653.4\n1.4 96348 0 0 11653.4\n1.41 103307 0 0 11653.4\n1.42 108970 0 0 11653.4\n1.43 113155 0 0 11653.4\n1.44 115713 0 0 11653.4\n1.45 116534 0 0 11653.4\n1.46 115552 0 0 11653.4\n1.47 112750 0 0 11653.4\n1.48 108158 0 0 11653.4\n1.49 101857 0 0 11653.4\n1.5 93973.5 0 0 11653.4\n1.51 84679 0 0 11653.4\n1.52 74183.6 0 0 11653.4\n1.53 62730.5 0 0 11653.4\n1.54 50588.5 0 0 11653.4\n1.55 38044 0 0 11653.4\n1.56 25391.8 0 0 11653.4\n1.57 12926.4 0 0 11653.4\n1.58 932.466 0 0 11653.4\n1.59 -10323.7 0 0 11653.4\n1.6 -20602.4 0 0 11653.4\n1.61 -29697.7 0 0 11653.4\n1.62 -37443.6 0 0 11653.4\n1.63 -43718.3 0 0 11653.4\n1.64 -48447.8 0 0 11653.4\n1.65 -51607 0 0 11653.4\n1.66 -53219.5 0 0 11653.4\n1.67 -53355.7 0 0 11653.4\n1.68 -52129.5 0 0 11653.4\n1.69 -49693 0 0 11653.4\n1.7 -46230.6 0 0 11653.4\n1.71 -41951.5 0 0 11653.4\n1.72 -37082.2 0 0 11653.4\n1.73 -31857.8 0 0 11653.4\n1.74 -26513.5 0 0 11653.4\n1.75 -21276.4 0 0 11653.4\n1.76 -16357.9 0 0 11653.4\n1.77 -11945.9 0 0 11653.4\n1.78 -8199.74 0 0 11653.4\n1.79 -5244.58 0 0 11653.4\n1.8 -3168.44 0 0 11653.4\n1.81 -2020.1 0 0 11653.4\n1.82 -1808.73 0 0 11653.4\n1.83 -2505.02 0 0 11653.4\n1.84 -4043.73 0 0 11653.4\n1.85 -6327.61 0 0 11653.4\n1.86 -9232.41 0 0 11653.4\n1.87 -12612.9 0 0 11653.4\n1.88 -16309.4 0 0 11653.4\n1.89 -20154.9 0 0 11653.4\n1.9 -23982.3 0 0 11653.4\n1.91 -27631.4 0 0 11653.4\n1.92 -30955 0 0 11653.4\n1.93 -33825.5 0 0 11653.4\n1.94 -36139.1 0 0 11653.4\n1.95 -37819.9 0 0 11653.4\n1.96 -38822.6 0 0 11653.4\n1.97 -39133.3 0 0 11653.4\n1.98 -38769.7 0 0 11653.4\n1.99 -37779.1 0 0 11653.4\n2 -36236.3 0 0 11653.4\n2.01 -34239.2 0 0 11653.4\n2.02 -31903.8 0 0 11653.4\n2.03 -29358.9 0 0 11653.4\n2.04 -26739.8 0 0 11653.4\n2.05 -24181.7 0 0 11653.4\n2.06 -21813.7 0 0 11653.4\n2.07 -19752.2 0 0 11653.4\n2.08 -18095.5 0 0 11653.4\n2.09 -16919.2 0 0 11653.4\n2.1 -16272 0 0 11653.4\n2.11 -16173 0 0 11653.4\n2.12 -16610.4 0 0 11653.4\n2.13 -17541.3 0 0 11653.4\n2.14 -18892.7 0 0 11653.4\n2.15 -20564 0 0 11653.4\n2.16 -22430.5 0 0 11653.4\n2.17 -24348.5 0 0 11653.4\n2.18 -26160.4 0 0 11653.4\n2.19 -27701.2 0 0 11653.4\n2.2 -28804.8 0 0 11653.4\n2.21 -29311.4 0 0 11653.4\n2.22 -29073.8 0 0 11653.4\n2.23 -27963.7 0 0 11653.4\n2.24 -25877.9 0 0 11653.4\n2.25 -22742.8 0 0 11653.4\n2.26 -18518.7 0 0 11653.4\n2.27 -13202 0 0 11653.4\n2.28 -6827.17 0 0 11653.4\n2.29 533.184 0 0 11653.4\n2.3 8769.9 0 0 11653.4\n2.31 17739.6 0 0 11653.4\n2.32 27268.5 0 0 11653.4\n2.33 37157.5 0 0 11653.4\n2.34 47187.9 0 0 11653.4\n2.35 57128 0 0 11653.4\n2.36 66740.3 0 0 11653.4\n2.37 75788.5 0 0 11653.4\n2.38 84045.6 0 0 11653.4\n2.39 91300 0 0 11653.4\n2.4 97362.9 0 0 11653.4\n2.41 102074 0 0 11653.4\n2.42 105306 0 0 11653.4\n2.43 106968 0 0 11653.4\n2.44 107011 0 0 11653.4\n2.45 105427 0 0 11653.4\n2.46 102247 0 0 11653.4\n2.47 97545.1 0 0 11653.4\n2.48 91432.3 0 0 11653.4\n2.49 84053.7 0 0 11653.4\n2.5 75584.5 0 0 11653.4\n2.51 66224.1 0 0 11653.4\n2.52 56190.4 0 0 11653.4\n2.53 45713.4 0 0 11653.4\n2.54 35028 0 0 11653.4\n2.55 24367.9 0 0 11653.4\n2.56 13958.9 0 0 11653.4\n2.57 4012.96 0 0 11653.4\n2.58 -5277.48 0 0 11653.4\n2.59 -13743.8 0 0 11653.4\n2.6 -21245.3 0 0 11653.4\n2.61 -27671.9 0 0 11653.4\n2.62 -32945.9 0 0 11653.4\n2.63 -37022.9 0 0 11653.4\n2.64 -39891.6 0 0 11653.4\n2.65 -41572.2 0 0 11653.4\n2.66 -42114.7 0 0 11653.4\n2.67 -41596 0 0 11653.4\n2.68 -40116.2 0 0 11653.4\n2.69 -37794.5 0 0 11653.4\n2.7 -34765.2 0 0 11653.4\n2.71 -31172.8 0 0 11653.4\n2.72 -27167.4 0 0 11653.4\n2.73 -22900.5 0 0 11653.4\n2.74 -18520.4 0 0 11653.4\n2.75 -14168.8 0 0 11653.4\n2.76 -9976.72 0 0 11653.4\n2.77 -6062.3 0 0 11653.4\n2.78 -2528.15 0 0 11653.4\n2.79 540.183 0 0 11653.4\n2.8 3075.25 0 0 11653.4\n2.81 5028.13 0 0 11653.4\n2.82 6368.27 0 0 11653.4\n2.83 7082.85 0 0 11653.4\n2.84 7175.6 0 0 11653.4\n2.85 6665.42 0 0 11653.4\n2.86 5584.53 0 0 11653.4\n2.87 3976.57 0 0 11653.4\n2.88 1894.46 0 0 11653.4\n2.89 -601.666 0 0 11653.4\n2.9 -3446.6 0 0 11653.4\n2.91 -6572.02 0 0 11653.4\n2.92 -9908.35 0 0 11653.4\n2.93 -13386.4 0 0 11653.4\n2.94 -16939 0 0 11653.4\n2.95 -20501.9 0 0 11653.4\n2.96 -24015.2 0 0 11653.4\n2.97 -27423.8 0 0 11653.4\n2.98 -30678.4 0 0 11653.4\n2.99 -33735.5 0 0 11653.4\n3 -36558.1 0 0 11653.4\n3.01 -39115.6 0 0 11653.4\n3.02 -41383.9 0 0 11653.4\n3.03 -43345.7 0 0 11653.4\n3.04 -44989.8 0 0 11653.4\n3.05 -46311.6 0 0 11653.4\n3.06 -47312.7 0 0 11653.4\n3.07 -48000.4 0 0 11653.4\n3.08 -48388.2 0 0 11653.4\n3.09 -48494.8 0 0 11653.4\n3.1 -48344.1 0 0 11653.4\n3.11 -47964.8 0 0 11653.4\n3.12 -47389.8 0 0 11653.4\n3.13 -46655.4 0 0 11653.4\n3.14 -45801.2 0 0 11653.4\n3.15 -44868.4 0 0 11653.4\n3.16 -43899.6 0 0 11653.4\n3.17 -42937.2 0 0 11653.4\n3.18 -42022.5 0 0 11653.4\n3.19 -41194.4 0 0 11653.4\n3.2 -40488.2 0 0 11653.4\n3.21 -39933.9 0 0 11653.4\n3.22 -39555.7 0 0 11653.4\n3.23 -39370.2 0 0 11653.4\n3.24 -39385.6 0 0 11653.4\n3.25 -39601.1 0 0 11653.4\n3.26 -40006.1 0 0 11653.4\n3.27 -40579.8 0 0 11653.4\n3.28 -41291.6 0 0 11653.4\n3.29 -42101.3 0 0 11653.4\n3.3 -42959.7 0 0 11653.4\n3.31 -43809.9 0 0 11653.4\n3.32 -44588.8 0 0 11653.4\n3.33 -45228.6 0 0 11653.4\n3.34 -45658.8 0 0 11653.4\n3.35 -45809 0 0 11653.4\n3.36 -45610.6 0 0 11653.4\n3.37 -44999.9 0 0 11653.4\n3.38 -43919.8 0 0 11653.4\n3.39 -42323.1 0 0 11653.4\n3.4 -40173.9 0 0 11653.4\n3.41 -37449.7 0 0 11653.4\n3.42 -34143.3 0 0 11653.4\n3.43 -30263.4 0 0 11653.4\n3.44 -25835.3 0 0 11653.4\n3.45 -20901.6 0 0 11653.4\n3.46 -15521 0 0 11653.4\n3.47 -9767.61 0 0 11653.4\n3.48 -3729.63 0 0 11653.4\n3.49 2492.93 0 0 11653.4\n3.5 8790.54 0 0 11653.4\n3.51 15047 0 0 11653.4\n3.52 21142.8 0 0 11653.4\n3.53 26957.7 0 0 11653.4\n3.54 32375 0 0 11653.4\n3.55 37284 0 0 11653.4\n3.56 41584 0 0 11653.4\n3.57 45186.2 0 0 11653.4\n3.58 48017.3 0 0 11653.4\n3.59 50020.8 0 0 11653.4\n3.6 51159.1 0 0 11653.4\n3.61 51414 0 0 11653.4\n3.62 50787.8 0 0 11653.4\n3.63 49302.3 0 0 11653.4\n3.64 46998.7 0 0 11653.4\n3.65 43935.9 0 0 11653.4\n3.66 40188.6 0 0 11653.4\n3.67 35844.8 0 0 11653.4\n3.68 31003.6 0 0 11653.4\n3.69 25772 0 0 11653.4\n3.7 20261.5 0 0 11653.4\n3.71 14585.3 0 0 11653.4\n3.72 8855.41 0 0 11653.4\n3.73 3179.21 0 0 11653.4\n3.74 -2342.73 0 0 11653.4\n3.75 -7619.03 0 0 11653.4\n3.76 -12569.4 0 0 11653.4\n3.77 -17125.9 0 0 11653.4\n3.78 -21233.9 0 0 11653.4\n3.79 -24852.4 0 0 11653.4\n3.8 -27953.9 0 0 11653.4\n3.81 -30523.7 0 0 11653.4\n3.82 -32559.1 0 0 11653.4\n3.83 -34067.9 0 0 11653.4\n3.84 -35067.1 0 0 11653.4\n3.85 -35580.5 0 0 11653.4\n3.86 -35637.5 0 0 11653.4\n3.87 -35271 0 0 11653.4\n3.88 -34515.7 0 0 11653.4\n3.89 -33406.5 0 0 11653.4\n3.9 -31977.4 0 0 11653.4\n3.91 -30260.2 0 0 11653.4\n3.92 -28284.3 0 0 11653.4\n3.93 -26076 0 0 11653.4\n3.94 -23658.8 0 0 11653.4\n3.95 -21053.8 0 0 11653.4\n3.96 -18280.5 0 0 11653.4\n3.97 -15357.4 0 0 11653.4\n3.98 -12303.6 0 0 11653.4\n3.99 -9139.65 0 0 11653.4\n4 -5888.76 0 0 11653.4\n4.01 -2578.12 0 0 11653.4\n4.02 760.329 0 0 11653.4\n4.03 4089.17 0 0 11653.4\n4.04 7365.15 0 0 11653.4\n4.05 10539.2 0 0 11653.4\n4.06 13557 0 0 11653.4\n4.07 16359.4 0 0 11653.4\n4.08 18884.3 0 0 11653.4\n4.09 21068 0 0 11653.4\n4.1 22847 0 0 11653.4\n4.11 24160.9 0 0 11653.4\n4.12 24954.1 0 0 11653.4\n4.13 25179 0 0 11653.4\n4.14 24798.1 0 0 11653.4\n4.15 23786.7 0 0 11653.4\n4.16 22134.8 0 0 11653.4\n4.17 19848.7 0 0 11653.4\n4.18 16952.9 0 0 11653.4\n4.19 13490 0 0 11653.4\n4.2 9521.46 0 0 11653.4\n4.21 5126.58 0 0 11653.4\n4.22 401.474 0 0 11653.4\n4.23 -4542.97 0 0 11653.4\n4.24 -9583.69 0 0 11653.4\n4.25 -14588.6 0 0 11653.4\n4.26 -19420.2 0 0 11653.4\n4.27 -23939.9 0 0 11653.4\n4.28 -28011.7 0 0 11653.4\n4.29 -31507.2 0 0 11653.4\n4.3 -34309.6 0 0 11653.4\n4.31 -36317.9 0 0 11653.4\n4.32 -37450.4 0 0 11653.4\n4.33 -37648.2 0 0 11653.4\n4.34 -36877.6 0 0 11653.4\n4.35 -35131.7 0 0 11653.4\n4.36 -32431.8 0 0 11653.4\n4.37 -28826.8 0 0 11653.4\n4.38 -24392.9 0 0 11653.4\n4.39 -19231.2 0 0 11653.4\n4.4 -13465.5 0 0 11653.4\n4.41 -7238.43 0 0 11653.4\n4.42 -707.454 0 0 11653.4\n4.43 5959.94 0 0 11653.4\n4.44 12591.4 0 0 11653.4\n4.45 19014.8 0 0 11653.4\n4.46 25064.3 0 0 11653.4\n4.47 30584.7 0 0 11653.4\n4.48 35437.1 0 0 11653.4\n4.49 39502.6 0 0 11653.4\n4.5 42686.6 0 0 11653.4\n4.51 44921.4 0 0 11653.4\n4.52 46168.3 0 0 11653.4\n4.53 46418.3 0 0 11653.4\n4.54 45692.4 0 0 11653.4\n4.55 44040.7 0 0 11653.4\n4.56 41539.8 0 0 11653.4\n4.57 38290.3 0 0 11653.4\n4.58 34412.9 0 0 11653.4\n4.59 30044.1 0 0 11653.4\n4.6 25331.1 0 0 11653.4\n4.61 20426.9 0 0 11653.4\n4.62 15484.4 0 0 11653.4\n4.63 10651.6 0 0 11653.4\n4.64 6066.43 0 0 11653.4\n4.65 1851.91 0 0 11653.4\n4.66 -1887.54 0 0 11653.4\n4.67 -5069.48 0 0 11653.4\n4.68 -7635.8 0 0 11653.4\n4.69 -9554.14 0 0 11653.4\n4.7 -10818.4 0 0 11653.4\n4.71 -11448 0 0 11653.4\n4.72 -11486.8 0 0 11653.4\n4.73 -11000.1 0 0 11653.4\n4.74 -10072.2 0 0 11653.4\n4.75 -8801.7 0 0 11653.4\n4.76 -7298.05 0 0 11653.4\n4.77 -5676.27 0 0 11653.4\n4.78 -4052.39 0 0 11653.4\n4.79 -2538.71 0 0 11653.4\n4.8 -1239.22 0 0 11653.4\n4.81 -245.526 0 0 11653.4\n4.82 366.679 0 0 11653.4\n4.83 540.487 0 0 11653.4\n4.84 239.806 0 0 11653.4\n4.85 -549.467 0 0 11653.4\n4.86 -1819.18 0 0 11653.4\n4.87 -3539.58 0 0 11653.4\n4.88 -5660.81 0 0 11653.4\n4.89 -8115.23 0 0 11653.4\n4.9 -10820.4 0 0 11653.4\n4.91 -13682.8 0 0 11653.4\n4.92 -16601.4 0 0 11653.4\n4.93 -19472.6 0 0 11653.4\n4.94 -22193.9 0 0 11653.4\n4.95 -24668.2 0 0 11653.4\n4.96 -26808.1 0 0 11653.4\n4.97 -28539.1 0 0 11653.4\n4.98 -29802.4 0 0 11653.4\n4.99 -30557.5 0 0 11653.4\n5 -30783.4 0 0 11653.4\n5.01 -30479.2 0 0 11653.4\n5.02 -29663.8 0 0 11653.4\n5.03 -28375.4 0 0 11653.4\n5.04 -26668.9 0 0 11653.4\n5.05 -24613.9 0 0 11653.4\n5.06 -22291.2 0 0 11653.4\n5.07 -19789.8 0 0 11653.4\n5.08 -17202.2 0 0 11653.4\n5.09 -14621.1 0 0 11653.4\n5.1 -12135.1 0 0 11653.4\n5.11 -9824.96 0 0 11653.4\n5.12 -7760.23 0 0 11653.4\n5.13 -5996.2 0 0 11653.4\n5.14 -4571.74 0 0 11653.4\n5.15 -3507.64 0 0 11653.4\n5.16 -2805.86 0 0 11653.4\n5.17 -2449.52 0 0 11653.4\n5.18 -2403.76 0 0 11653.4\n5.19 -2617.36 0 0 11653.4\n5.2 -3025.07 0 0 11653.4\n5.21 -3550.57 0 0 11653.4\n5.22 -4109.92 0 0 11653.4\n5.23 -4615.34 0 0 11653.4\n5.24 -4979.24 0 0 11653.4\n5.25 -5118.18 0 0 11653.4\n5.26 -4956.82 0 0 11653.4\n5.27 -4431.42 0 0 11653.4\n5.28 -3493.02 0 0 11653.4\n5.29 -2109.91 0 0 11653.4\n5.3 -269.517 0 0 11653.4\n5.31 2020.58 0 0 11653.4\n5.32 4732.38 0 0 11653.4\n5.33 7818.11 0 0 11653.4\n5.34 11211.6 0 0 11653.4\n5.35 14830.6 0 0 11653.4\n5.36 18579.5 0 0 11653.4\n5.37 22352.9 0 0 11653.4\n5.38 26039.7 0 0 11653.4\n5.39 29526.9 0 0 11653.4\n5.4 32704.2 0 0 11653.4\n5.41 35468.4 0 0 11653.4\n5.42 37727 0 0 11653.4\n5.43 39402.4 0 0 11653.4\n5.44 40434.8 0 0 11653.4\n5.45 40784.7 0 0 11653.4\n5.46 40434.7 0 0 11653.4\n5.47 39390.4 0 0 11653.4\n5.48 37680.7 0 0 11653.4\n5.49 35356.5 0 0 11653.4\n5.5 32489.4 0 0 11653.4\n5.51 29169.3 0 0 11653.4\n5.52 25501.1 0 0 11653.4\n5.53 21601.1 0 0 11653.4\n5.54 17592.6 0 0 11653.4\n5.55 13602.1 0 0 11653.4\n5.56 9754.06 0 0 11653.4\n5.57 6166.96 0 0 11653.4\n5.58 2948.83 0 0 11653.4\n5.59 193.521 0 0 11653.4\n5.6 -2022.63 0 0 11653.4\n5.61 -3643.41 0 0 11653.4\n5.62 -4634.59 0 0 11653.4\n5.63 -4984.98 0 0 11653.4\n5.64 -4706.62 0 0 11653.4\n5.65 -3834.09 0 0 11653.4\n5.66 -2422.95 0 0 11653.4\n5.67 -547.494 0 0 11653.4\n5.68 1702.24 0 0 11653.4\n5.69 4224.06 0 0 11653.4\n5.7 6907.51 0 0 11653.4\n5.71 9638.21 0 0 11653.4\n5.72 12302.2 0 0 11653.4\n5.73 14790.1 0 0 11653.4\n5.74 17001.4 0 0 11653.4\n5.75 18848.2 0 0 11653.4\n5.76 20258.3 0 0 11653.4\n5.77 21177.7 0 0 11653.4\n5.78 21572.7 0 0 11653.4\n5.79 21430.9 0 0 11653.4\n5.8 20761.5 0 0 11653.4\n5.81 19594.7 0 0 11653.4\n5.82 17980.4 0 0 11653.4\n5.83 15986.3 0 0 11653.4\n5.84 13694.7 0 0 11653.4\n5.85 11200 0 0 11653.4\n5.86 8604.33 0 0 11653.4\n5.87 6014.04 0 0 11653.4\n5.88 3535.52 0 0 11653.4\n5.89 1271.19 0 0 11653.4\n5.9 -684.316 0 0 11653.4\n5.91 -2247.67 0 0 11653.4\n5.92 -3349.88 0 0 11653.4\n5.93 -3938.83 0 0 11653.4\n5.94 -3981.07 0 0 11653.4\n5.95 -3463.01 0 0 11653.4\n5.96 -2391.3 0 0 11653.4\n5.97 -792.533 0 0 11653.4\n5.98 1287.86 0 0 11653.4\n5.99 3787.26 0 0 11653.4\n6 6628.25 0 0 11653.4\n6.01 9721.36 0 0 11653.4\n6.02 12968.3 0 0 11653.4\n6.03 16265.4 0 0 11653.4\n6.04 19507.2 0 0 11653.4\n6.05 22590.1 0 0 11653.4\n6.06 25415.7 0 0 11653.4\n6.07 27894.3 0 0 11653.4\n6.08 29947.2 0 0 11653.4\n6.09 31509.7 0 0 11653.4\n6.1 32532.6 0 0 11653.4\n6.11 32983.4 0 0 11653.4\n6.12 32847.5 0 0 11653.4\n6.13 32127.3 0 0 11653.4\n6.14 30842.7 0 0 11653.4\n6.15 29029.1 0 0 11653.4\n6.16 26736.4 0 0 11653.4\n6.17 24026.6 0 0 11653.4\n6.18 20971.6 0 0 11653.4\n6.19 17650.4 0 0 11653.4\n6.2 14146.5 0 0 11653.4\n6.21 10545.2 0 0 11653.4\n6.22 6930.78 0 0 11653.4\n6.23 3383.92 0 0 11653.4\n6.24 -20.3692 0 0 11653.4\n6.25 -3214.8 0 0 11653.4\n6.26 -6141.32 0 0 11653.4\n6.27 -8752.24 0 0 11653.4\n6.28 -11010.9 0 0 11653.4\n6.29 -12892 0 0 11653.4\n6.3 -14381.3 0 0 11653.4\n6.31 -15475 0 0 11653.4\n6.32 -16179.1 0 0 11653.4\n6.33 -16507.9 0 0 11653.4\n6.34 -16482.9 0 0 11653.4\n6.35 -16130.8 0 0 11653.4\n6.36 -15482.5 0 0 11653.4\n6.37 -14571 0 0 11653.4\n6.38 -13430 0 0 11653.4\n6.39 -12092.8 0 0 11653.4\n6.4 -10591 0 0 11653.4\n6.41 -8953.13 0 0 11653.4\n6.42 -7204.83 0 0 11653.4\n6.43 -5367.8 0 0 11653.4\n6.44 -3460 0 0 11653.4\n6.45 -1495.73 0 0 11653.4\n6.46 513.937 0 0 11653.4\n6.47 2560.53 0 0 11653.4\n6.48 4637.47 0 0 11653.4\n6.49 6739.13 0 0 11653.4\n6.5 8860.04 0 0 11653.4\n6.51 10993.9 0 0 11653.4\n6.52 13132.8 0 0 11653.4\n6.53 15266.5 0 0 11653.4\n6.54 17382.1 0 0 11653.4\n6.55 19463.2 0 0 11653.4\n6.56 21490.6 0 0 11653.4\n6.57 23441.5 0 0 11653.4\n6.58 25290.7 0 0 11653.4\n6.59 27010.6 0 0 11653.4\n6.6 28572.4 0 0 11653.4\n6.61 29946.9 0 0 11653.4\n6.62 31105.5 0 0 11653.4\n6.63 32021.5 0 0 11653.4\n6.64 32671.4 0 0 11653.4\n6.65 33035.7 0 0 11653.4\n6.66 33100.4 0 0 11653.4\n6.67 32857.5 0 0 11653.4\n6.68 32306 0 0 11653.4\n6.69 31452.2 0 0 11653.4\n6.7 30310.2 0 0 11653.4\n6.71 28901.6 0 0 11653.4\n6.72 27255 0 0 11653.4\n6.73 25405.9 0 0 11653.4\n6.74 23395.4 0 0 11653.4\n6.75 21269.1 0 0 11653.4\n6.76 19075.8 0 0 11653.4\n6.77 16866.2 0 0 11653.4\n6.78 14691 0 0 11653.4\n6.79 12599.5 0 0 11653.4\n6.8 10637.8 0 0 11653.4\n6.81 8847.7 0 0 11653.4\n6.82 7264.77 0 0 11653.4\n6.83 5917.6 0 0 11653.4\n6.84 4826.72 0 0 11653.4\n6.85 4003.95 0 0 11653.4\n6.86 3452.07 0 0 11653.4\n6.87 3164.8 0 0 11653.4\n6.88 3127.07 0 0 11653.4\n6.89 3315.64 0 0 11653.4\n6.9 3700 0 0 11653.4\n6.91 4243.46 0 0 11653.4\n6.92 4904.55 0 0 11653.4\n6.93 5638.51 0 0 11653.4\n6.94 6398.87 0 0 11653.4\n6.95 7139.12 0 0 11653.4\n6.96 7814.33 0 0 11653.4\n6.97 8382.69 0 0 11653.4\n6.98 8806.92 0 0 11653.4\n6.99 9055.48 0 0 11653.4\n7 9103.57 0 0 11653.4\n7.01 8933.84 0 0 11653.4\n7.02 8536.83 0 0 11653.4\n7.03 7911.14 0 0 11653.4\n7.04 7063.23 0 0 11653.4\n7.05 6007.04 0 0 11653.4\n7.06 4763.23 0 0 11653.4\n7.07 3358.29 0 0 11653.4\n7.08 1823.43 0 0 11653.4\n7.09 193.29 0 0 11653.4\n7.1 -1495.39 0 0 11653.4\n7.11 -3205.16 0 0 11653.4\n7.12 -4899.22 0 0 11653.4\n7.13 -6542.74 0 0 11653.4\n7.14 -8104.01 0 0 11653.4\n7.15 -9555.48 0 0 11653.4\n7.16 -10874.6 0 0 11653.4\n7.17 -12044.3 0 0 11653.4\n7.18 -13053.6 0 0 11653.4\n7.19 -13897.6 0 0 11653.4\n7.2 -14577.1 0 0 11653.4\n7.21 -15098.8 0 0 11653.4\n7.22 -15474.3 0 0 11653.4\n7.23 -15719.5 0 0 11653.4\n7.24 -15853.7 0 0 11653.4\n7.25 -15898.8 0 0 11653.4\n7.26 -15877.8 0 0 11653.4\n7.27 -15814.5 0 0 11653.4\n7.28 -15731.7 0 0 11653.4\n7.29 -15650.6 0 0 11653.4\n7.3 -15590.2 0 0 11653.4\n7.31 -15566.1 0 0 11653.4\n7.32 -15590.3 0 0 11653.4\n7.33 -15670.8 0 0 11653.4\n7.34 -15811.3 0 0 11653.4\n7.35 -16011.4 0 0 11653.4\n7.36 -16266.7 0 0 11653.4\n7.37 -16569.2 0 0 11653.4\n7.38 -16907.8 0 0 11653.4\n7.39 -17269.2 0 0 11653.4\n7.4 -17638 0 0 11653.4\n7.41 -17998.4 0 0 11653.4\n7.42 -18334 0 0 11653.4\n7.43 -18629.6 0 0 11653.4\n7.44 -18870.9 0 0 11653.4\n7.45 -19046.2 0 0 11653.4\n7.46 -19145.9 0 0 11653.4\n7.47 -19163.9 0 0 11653.4\n7.48 -19097.1 0 0 11653.4\n7.49 -18945.8 0 0 11653.4\n7.5 -18713.8 0 0 11653.4\n7.51 -18407.9 0 0 11653.4\n7.52 -18037.9 0 0 11653.4\n7.53 -17616 0 0 11653.4\n7.54 -17156.1 0 0 11653.4\n7.55 -16673.3 0 0 11653.4\n7.56 -16183.6 0 0 11653.4\n7.57 -15702.5 0 0 11653.4\n7.58 -15245 0 0 11653.4\n7.59 -14824.6 0 0 11653.4\n7.6 -14453.1 0 0 11653.4\n7.61 -14139.7 0 0 11653.4\n7.62 -13891 0 0 11653.4\n7.63 -13710.8 0 0 11653.4\n7.64 -13599.8 0 0 11653.4\n7.65 -13555.8 0 0 11653.4\n7.66 -13573.8 0 0 11653.4\n7.67 -13646.2 0 0 11653.4\n7.68 -13763.5 0 0 11653.4\n7.69 -13914.3 0 0 11653.4\n7.7 -14086.2 0 0 11653.4\n7.71 -14266.3 0 0 11653.4\n7.72 -14441.5 0 0 11653.4\n7.73 -14599.3 0 0 11653.4\n7.74 -14728.4 0 0 11653.4\n7.75 -14818.8 0 0 11653.4\n7.76 -14862.6 0 0 11653.4\n7.77 -14853.9 0 0 11653.4\n7.78 -14789.3 0 0 11653.4\n7.79 -14667.9 0 0 11653.4\n7.8 -14491.1 0 0 11653.4\n7.81 -14262.7 0 0 11653.4\n7.82 -13988.3 0 0 11653.4\n7.83 -13675.8 0 0 11653.4\n7.84 -13333.9 0 0 11653.4\n7.85 -12972.5 0 0 11653.4\n7.86 -12602.2 0 0 11653.4\n7.87 -12233.4 0 0 11653.4\n7.88 -11875.9 0 0 11653.4\n7.89 -11539.2 0 0 11653.4\n7.9 -11231.2 0 0 11653.4\n7.91 -10958.4 0 0 11653.4\n7.92 -10725.5 0 0 11653.4\n7.93 -10535.6 0 0 11653.4\n7.94 -10389.6 0 0 11653.4\n7.95 -10286.6 0 0 11653.4\n7.96 -10223.9 0 0 11653.4\n7.97 -10197.2 0 0 11653.4\n7.98 -10200.9 0 0 11653.4\n7.99 -10228.4 0 0 11653.4\n8 -10272.4 0 0 11653.4\n8.01 -10325.1 0 0 11653.4\n8.02 -10379 0 0 11653.4\n8.03 -10426.7 0 0 11653.4\n8.04 -10461.9 0 0 11653.4\n8.05 -10478.9 0 0 11653.4\n8.06 -10473.4 0 0 11653.4\n8.07 -10442.3 0 0 11653.4\n8.08 -10384.2 0 0 11653.4\n8.09 -10298.7 0 0 11653.4\n8.1 -10187.4 0 0 11653.4\n8.11 -10052.5 0 0 11653.4\n8.12 -9897.85 0 0 11653.4\n8.13 -9727.82 0 0 11653.4\n8.14 -9547.51 0 0 11653.4\n8.15 -9362.28 0 0 11653.4\n8.16 -9177.53 0 0 11653.4\n8.17 -8998.39 0 0 11653.4\n8.18 -8829.43 0 0 11653.4\n8.19 -8674.47 0 0 11653.4\n8.2 -8536.37 0 0 11653.4\n8.21 -8416.89 0 0 11653.4\n8.22 -8316.64 0 0 11653.4\n8.23 -8235.01 0 0 11653.4\n8.24 -8170.27 0 0 11653.4\n8.25 -8119.63 0 0 11653.4\n8.26 -8079.43 0 0 11653.4\n8.27 -8045.31 0 0 11653.4\n8.28 -8012.45 0 0 11653.4\n8.29 -7975.84 0 0 11653.4\n8.3 -7930.52 0 0 11653.4\n8.31 -7871.84 0 0 11653.4\n8.32 -7795.73 0 0 11653.4\n8.33 -7698.89 0 0 11653.4\n8.34 -7578.98 0 0 11653.4\n8.35 -7434.73 0 0 11653.4\n8.36 -7266.05 0 0 11653.4\n8.37 -7074.02 0 0 11653.4\n8.38 -6860.87 0 0 11653.4\n8.39 -6629.86 0 0 11653.4\n8.4 -6385.18 0 0 11653.4\n8.41 -6131.7 0 0 11653.4\n8.42 -5874.82 0 0 11653.4\n8.43 -5620.14 0 0 11653.4\n8.44 -5373.26 0 0 11653.4\n8.45 -5139.48 0 0 11653.4\n8.46 -4923.57 0 0 11653.4\n8.47 -4729.52 0 0 11653.4\n8.48 -4560.36 0 0 11653.4\n8.49 -4418.01 0 0 11653.4\n8.5 -4303.19 0 0 11653.4\n8.51 -4215.34 0 0 11653.4\n8.52 -4152.67 0 0 11653.4\n8.53 -4112.2 0 0 11653.4\n8.54 -4089.92 0 0 11653.4\n8.55 -4080.92 0 0 11653.4\n8.56 -4079.62 0 0 11653.4\n8.57 -4080.05 0 0 11653.4\n8.58 -4076.04 0 0 11653.4\n8.59 -4061.55 0 0 11653.4\n8.6 -4030.95 0 0 11653.4\n8.61 -3979.2 0 0 11653.4\n8.62 -3902.14 0 0 11653.4\n8.63 -3796.67 0 0 11653.4\n8.64 -3660.86 0 0 11653.4\n8.65 -3494.07 0 0 11653.4\n8.66 -3296.98 0 0 11653.4\n8.67 -3071.54 0 0 11653.4\n8.68 -2820.91 0 0 11653.4\n8.69 -2549.34 0 0 11653.4\n8.7 -2261.95 0 0 11653.4\n8.71 -1964.54 0 0 11653.4\n8.72 -1663.34 0 0 11653.4\n8.73 -1364.73 0 0 11653.4\n8.74 -1074.98 0 0 11653.4\n8.75 -799.962 0 0 11653.4\n8.76 -544.924 0 0 11653.4\n8.77 -314.261 0 0 11653.4\n8.78 -111.325 0 0 11653.4\n8.79 61.7014 0 0 11653.4\n8.8 203.898 0 0 11653.4\n8.81 315.629 0 0 11653.4\n8.82 398.525 0 0 11653.4\n8.83 455.389 0 0 11653.4\n8.84 490.075 0 0 11653.4\n8.85 507.3 0 0 11653.4\n8.86 512.434 0 0 11653.4\n8.87 511.258 0 0 11653.4\n8.88 509.701 0 0 11653.4\n8.89 513.58 0 0 11653.4\n8.9 528.34 0 0 11653.4\n8.91 558.819 0 0 11653.4\n8.92 609.034 0 0 11653.4\n8.93 682.01 0 0 11653.4\n8.94 779.654 0 0 11653.4\n8.95 902.673 0 0 11653.4\n8.96 1050.56 0 0 11653.4\n8.97 1221.6 0 0 11653.4\n8.98 1413 0 0 11653.4\n8.99 1620.96 0 0 11653.4\n9 1840.91 0 0 11653.4\n9.01 2067.66 0 0 11653.4\n9.02 2295.67 0 0 11653.4\n9.03 2519.3 0 0 11653.4\n9.04 2733.02 0 0 11653.4\n9.05 2931.72 0 0 11653.4\n9.06 3110.86 0 0 11653.4\n9.07 3266.72 0 0 11653.4\n9.08 3396.55 0 0 11653.4\n9.09 3498.66 0 0 11653.4\n9.1 3572.51 0 0 11653.4\n9.11 3618.73 0 0 11653.4\n9.12 3639.05 0 0 11653.4\n9.13 3636.26 0 0 11653.4\n9.14 3614.03 0 0 11653.4\n9.15 3576.8 0 0 11653.4\n9.16 3529.49 0 0 11653.4\n9.17 3477.37 0 0 11653.4\n9.18 3425.76 0 0 11653.4\n9.19 3379.81 0 0 11653.4\n9.2 3344.26 0 0 11653.4\n9.21 3323.28 0 0 11653.4\n9.22 3320.2 0 0 11653.4\n9.23 3337.47 0 0 11653.4\n9.24 3376.46 0 0 11653.4\n9.25 3437.49 0 0 11653.4\n9.26 3519.78 0 0 11653.4\n9.27 3621.5 0 0 11653.4\n9.28 3739.89 0 0 11653.4\n9.29 3871.36 0 0 11653.4\n9.3 4011.7 0 0 11653.4\n9.31 4156.27 0 0 11653.4\n9.32 4300.19 0 0 11653.4\n9.33 4438.63 0 0 11653.4\n9.34 4566.99 0 0 11653.4\n9.35 4681.16 0 0 11653.4\n9.36 4777.68 0 0 11653.4\n9.37 4853.93 0 0 11653.4\n9.38 4908.25 0 0 11653.4\n9.39 4940.04 0 0 11653.4\n9.4 4949.79 0 0 11653.4\n9.41 4939.06 0 0 11653.4\n9.42 4910.43 0 0 11653.4\n9.43 4867.4 0 0 11653.4\n9.44 4814.21 0 0 11653.4\n9.45 4755.7 0 0 11653.4\n9.46 4697.09 0 0 11653.4\n9.47 4643.71 0 0 11653.4\n9.48 4600.81 0 0 11653.4\n9.49 4573.31 0 0 11653.4\n9.5 4565.58 0 0 11653.4\n9.51 4581.23 0 0 11653.4\n9.52 4622.97 0 0 11653.4\n9.53 4692.47 0 0 11653.4\n9.54 4790.24 0 0 11653.4\n9.55 4915.69 0 0 11653.4\n9.56 5067.05 0 0 11653.4\n9.57 5241.47 0 0 11653.4\n9.58 5435.18 0 0 11653.4\n9.59 5643.56 0 0 11653.4\n9.6 5861.43 0 0 11653.4\n9.61 6083.16 0 0 11653.4\n9.62 6303 0 0 11653.4\n9.63 6515.29 0 0 11653.4\n9.64 6714.69 0 0 11653.4\n9.65 6896.42 0 0 11653.4\n9.66 7056.47 0 0 11653.4\n9.67 7191.76 0 0 11653.4\n9.68 7300.29 0 0 11653.4\n9.69 7381.2 0 0 11653.4\n9.7 7434.85 0 0 11653.4\n9.71 7462.76 0 0 11653.4\n9.72 7467.55 0 0 11653.4\n9.73 7452.86 0 0 11653.4\n9.74 7423.17 0 0 11653.4\n9.75 7383.57 0 0 11653.4\n9.76 7339.6 0 0 11653.4\n9.77 7296.95 0 0 11653.4\n9.78 7261.23 0 0 11653.4\n9.79 7237.71 0 0 11653.4\n9.8 7231.08 0 0 11653.4\n9.81 7245.23 0 0 11653.4\n9.82 7283.07 0 0 11653.4\n9.83 7346.35 0 0 11653.4\n9.84 7435.63 0 0 11653.4\n9.85 7550.15 0 0 11653.4\n9.86 7687.89 0 0 11653.4\n9.87 7845.6 0 0 11653.4\n9.88 8018.92 0 0 11653.4\n9.89 8202.53 0 0 11653.4\n9.9 8390.37 0 0 11653.4\n9.91 8575.81 0 0 11653.4\n9.92 8751.99 0 0 11653.4\n9.93 8912.02 0 0 11653.4\n9.94 9049.27 0 0 11653.4\n9.95 9157.66 0 0 11653.4\n9.96 9231.85 0 0 11653.4\n9.97 9267.53 0 0 11653.4\n9.98 9261.52 0 0 11653.4\n9.99 9211.95 0 0 11653.4\n10 9118.33 0 0 11653.4\n10.01 8981.58 0 0 11653.4\n10.02 8804.03 0 0 11653.4\n10.03 8589.28 0 0 11653.4\n10.04 8342.15 0 0 11653.4\n10.05 8068.44 0 0 11653.4\n10.06 7774.76 0 0 11653.4\n10.07 7468.26 0 0 11653.4\n10.08 7156.4 0 0 11653.4\n10.09 6846.65 0 0 11653.4\n10.1 6546.23 0 0 11653.4\n10.11 6261.84 0 0 11653.4\n10.12 5999.45 0 0 11653.4\n10.13 5764.06 0 0 11653.4\n10.14 5559.56 0 0 11653.4\n10.15 5388.59 0 0 11653.4\n10.16 5252.45 0 0 11653.4\n10.17 5151.12 0 0 11653.4\n10.18 5083.26 0 0 11653.4\n10.19 5046.26 0 0 11653.4\n10.2 5036.45 0 0 11653.4\n10.21 5049.17 0 0 11653.4\n10.22 5079.03 0 0 11653.4\n10.23 5120.12 0 0 11653.4\n10.24 5166.23 0 0 11653.4\n10.25 5211.12 0 0 11653.4\n10.26 5248.78 0 0 11653.4\n10.27 5273.6 0 0 11653.4\n10.28 5280.65 0 0 11653.4\n10.29 5265.79 0 0 11653.4\n10.3 5225.86 0 0 11653.4\n10.31 5158.78 0 0 11653.4\n10.32 5063.57 0 0 11653.4\n10.33 4940.39 0 0 11653.4\n10.34 4790.51 0 0 11653.4\n10.35 4616.21 0 0 11653.4\n10.36 4420.66 0 0 11653.4\n10.37 4207.82 0 0 11653.4\n10.38 3982.21 0 0 11653.4\n10.39 3748.74 0 0 11653.4\n10.4 3512.52 0 0 11653.4\n10.41 3278.61 0 0 11653.4\n10.42 3051.89 0 0 11653.4\n10.43 2836.82 0 0 11653.4\n10.44 2637.3 0 0 11653.4\n10.45 2456.54 0 0 11653.4\n10.46 2296.97 0 0 11653.4\n10.47 2160.15 0 0 11653.4\n10.48 2046.79 0 0 11653.4\n10.49 1956.69 0 0 11653.4\n10.5 1888.87 0 0 11653.4\n10.51 1841.61 0 0 11653.4\n10.52 1812.55 0 0 11653.4\n10.53 1798.86 0 0 11653.4\n10.54 1797.34 0 0 11653.4\n10.55 1804.65 0 0 11653.4\n10.56 1817.38 0 0 11653.4\n10.57 1832.28 0 0 11653.4\n10.58 1846.37 0 0 11653.4\n10.59 1857.06 0 0 11653.4\n10.6 1862.27 0 0 11653.4\n10.61 1860.47 0 0 11653.4\n10.62 1850.78 0 0 11653.4\n10.63 1832.9 0 0 11653.4\n10.64 1807.16 0 0 11653.4\n10.65 1774.42 0 0 11653.4\n10.66 1736.04 0 0 11653.4\n10.67 1693.72 0 0 11653.4\n10.68 1649.45 0 0 11653.4\n10.69 1605.31 0 0 11653.4\n10.7 1563.38 0 0 11653.4\n10.71 1525.62 0 0 11653.4\n10.72 1493.69 0 0 11653.4\n10.73 1468.89 0 0 11653.4\n10.74 1452.05 0 0 11653.4\n10.75 1443.46 0 0 11653.4\n10.76 1442.86 0 0 11653.4\n10.77 1449.37 0 0 11653.4\n10.78 1461.57 0 0 11653.4\n10.79 1477.53 0 0 11653.4\n10.8 1494.88 0 0 11653.4\n10.81 1510.94 0 0 11653.4\n10.82 1522.8 0 0 11653.4\n10.83 1527.5 0 0 11653.4\n10.84 1522.14 0 0 11653.4\n10.85 1504.06 0 0 11653.4\n10.86 1470.95 0 0 11653.4\n10.87 1420.99 0 0 11653.4\n10.88 1353 0 0 11653.4\n10.89 1266.44 0 0 11653.4\n10.9 1161.59 0 0 11653.4\n10.91 1039.45 0 0 11653.4\n10.92 901.86 0 0 11653.4\n10.93 751.359 0 0 11653.4\n10.94 591.184 0 0 11653.4\n10.95 425.136 0 0 11653.4\n10.96 257.463 0 0 11653.4\n10.97 92.7038 0 0 11653.4\n10.98 -64.4775 0 0 11653.4\n10.99 -209.468 0 0 11653.4\n11 -337.889 0 0 11653.4\n11.01 -445.769 0 0 11653.4\n11.02 -529.711 0 0 11653.4\n11.03 -587.037 0 0 11653.4\n11.04 -615.91 0 0 11653.4\n11.05 -615.429 0 0 11653.4\n11.06 -585.681 0 0 11653.4\n11.07 -527.766 0 0 11653.4\n11.08 -443.782 0 0 11653.4\n11.09 -336.766 0 0 11653.4\n11.1 -210.605 0 0 11653.4\n11.11 -69.9154 0 0 11653.4\n11.12 80.1157 0 0 11653.4\n11.13 233.901 0 0 11653.4\n11.14 385.649 0 0 11653.4\n11.15 529.56 0 0 11653.4\n11.16 660.037 0 0 11653.4\n11.17 771.877 0 0 11653.4\n11.18 860.457 0 0 11653.4\n11.19 921.897 0 0 11653.4\n11.2 953.197 0 0 11653.4\n11.21 952.343 0 0 11653.4\n11.22 918.374 0 0 11653.4\n11.23 851.413 0 0 11653.4\n11.24 752.659 0 0 11653.4\n11.25 624.341 0 0 11653.4\n11.26 469.63 0 0 11653.4\n11.27 292.521 0 0 11653.4\n11.28 97.6872 0 0 11653.4\n11.29 -109.695 0 0 11653.4\n11.3 -324.129 0 0 11653.4\n11.31 -540.002 0 0 11653.4\n11.32 -751.779 0 0 11653.4\n11.33 -954.201 0 0 11653.4\n11.34 -1142.47 0 0 11653.4\n11.35 -1312.39 0 0 11653.4\n11.36 -1460.55 0 0 11653.4\n11.37 -1584.38 0 0 11653.4\n11.38 -1682.24 0 0 11653.4\n11.39 -1753.49 0 0 11653.4\n11.4 -1798.45 0 0 11653.4\n11.41 -1818.35 0 0 11653.4\n11.42 -1815.31 0 0 11653.4\n11.43 -1792.21 0 0 11653.4\n11.44 -1752.55 0 0 11653.4\n11.45 -1700.32 0 0 11653.4\n11.46 -1639.79 0 0 11653.4\n11.47 -1575.42 0 0 11653.4\n11.48 -1511.59 0 0 11653.4\n11.49 -1452.48 0 0 11653.4\n11.5 -1401.92 0 0 11653.4\n11.51 -1363.19 0 0 11653.4\n11.52 -1339 0 0 11653.4\n11.53 -1331.29 0 0 11653.4\n11.54 -1341.26 0 0 11653.4\n11.55 -1369.28 0 0 11653.4\n11.56 -1414.94 0 0 11653.4\n11.57 -1477.08 0 0 11653.4\n11.58 -1553.81 0 0 11653.4\n11.59 -1642.69 0 0 11653.4\n11.6 -1740.76 0 0 11653.4\n11.61 -1844.73 0 0 11653.4\n11.62 -1951.1 0 0 11653.4\n11.63 -2056.32 0 0 11653.4\n11.64 -2156.93 0 0 11653.4\n11.65 -2249.73 0 0 11653.4\n11.66 -2331.85 0 0 11653.4\n11.67 -2400.92 0 0 11653.4\n11.68 -2455.15 0 0 11653.4\n11.69 -2493.35 0 0 11653.4\n11.7 -2515.02 0 0 11653.4\n11.71 -2520.35 0 0 11653.4\n11.72 -2510.14 0 0 11653.4\n11.73 -2485.86 0 0 11653.4\n11.74 -2449.46 0 0 11653.4\n11.75 -2403.37 0 0 11653.4\n11.76 -2350.36 0 0 11653.4\n11.77 -2293.38 0 0 11653.4\n11.78 -2235.5 0 0 11653.4\n11.79 -2179.73 0 0 11653.4\n11.8 -2128.91 0 0 11653.4\n11.81 -2085.61 0 0 11653.4\n11.82 -2052.01 0 0 11653.4\n11.83 -2029.82 0 0 11653.4\n11.84 -2020.22 0 0 11653.4\n11.85 -2023.83 0 0 11653.4\n11.86 -2040.71 0 0 11653.4\n11.87 -2070.32 0 0 11653.4\n11.88 -2111.63 0 0 11653.4\n11.89 -2163.1 0 0 11653.4\n11.9 -2222.84 0 0 11653.4\n11.91 -2288.62 0 0 11653.4\n11.92 -2358.07 0 0 11653.4\n11.93 -2428.67 0 0 11653.4\n11.94 -2497.98 0 0 11653.4\n11.95 -2563.67 0 0 11653.4\n11.96 -2623.65 0 0 11653.4\n11.97 -2676.16 0 0 11653.4\n11.98 -2719.81 0 0 11653.4\n11.99 -2753.69 0 0 11653.4\n12 -2777.34 0 0 11653.4\n12.01 -2790.77 0 0 11653.4\n12.02 -2794.5 0 0 11653.4\n12.03 -2789.45 0 0 11653.4\n12.04 -2776.91 0 0 11653.4\n12.05 -2758.5 0 0 11653.4\n12.06 -2736.03 0 0 11653.4\n12.07 -2711.46 0 0 11653.4\n12.08 -2686.76 0 0 11653.4\n12.09 -2663.8 0 0 11653.4\n12.1 -2644.33 0 0 11653.4\n12.11 -2629.79 0 0 11653.4\n12.12 -2621.33 0 0 11653.4\n12.13 -2619.68 0 0 11653.4\n12.14 -2625.18 0 0 11653.4\n12.15 -2637.7 0 0 11653.4\n12.16 -2656.7 0 0 11653.4\n12.17 -2681.21 0 0 11653.4\n12.18 -2709.94 0 0 11653.4\n12.19 -2741.26 0 0 11653.4\n12.2 -2773.37 0 0 11653.4\n12.21 -2804.32 0 0 11653.4\n12.22 -2832.18 0 0 11653.4\n12.23 -2855.06 0 0 11653.4\n12.24 -2871.3 0 0 11653.4\n12.25 -2879.48 0 0 11653.4\n12.26 -2878.58 0 0 11653.4\n12.27 -2867.98 0 0 11653.4\n12.28 -2847.55 0 0 11653.4\n12.29 -2817.66 0 0 11653.4\n12.3 -2779.18 0 0 11653.4\n12.31 -2733.47 0 0 11653.4\n12.32 -2682.31 0 0 11653.4\n12.33 -2627.88 0 0 11653.4\n12.34 -2572.61 0 0 11653.4\n12.35 -2519.13 0 0 11653.4\n12.36 -2470.14 0 0 11653.4\n12.37 -2428.26 0 0 11653.4\n12.38 -2395.96 0 0 11653.4\n12.39 -2375.38 0 0 11653.4\n12.4 -2368.26 0 0 11653.4\n12.41 -2375.84 0 0 11653.4\n12.42 -2398.77 0 0 11653.4\n12.43 -2437.04 0 0 11653.4\n12.44 -2489.98 0 0 11653.4\n12.45 -2556.26 0 0 11653.4\n12.46 -2633.87 0 0 11653.4\n12.47 -2720.25 0 0 11653.4\n12.48 -2812.29 0 0 11653.4\n12.49 -2906.5 0 0 11653.4\n12.5 -2999.11 0 0 11653.4\n12.51 -3086.23 0 0 11653.4\n12.52 -3163.96 0 0 11653.4\n12.53 -3228.61 0 0 11653.4\n12.54 -3276.8 0 0 11653.4\n12.55 -3305.64 0 0 11653.4\n12.56 -3312.86 0 0 11653.4\n12.57 -3296.91 0 0 11653.4\n12.58 -3257.05 0 0 11653.4\n12.59 -3193.39 0 0 11653.4\n12.6 -3106.98 0 0 11653.4\n12.61 -2999.72 0 0 11653.4\n12.62 -2874.36 0 0 11653.4\n12.63 -2734.42 0 0 11653.4\n12.64 -2584.06 0 0 11653.4\n12.65 -2427.98 0 0 11653.4\n12.66 -2271.23 0 0 11653.4\n12.67 -2119.03 0 0 11653.4\n12.68 -1976.6 0 0 11653.4\n12.69 -1848.96 0 0 11653.4\n12.7 -1740.74 0 0 11653.4\n12.71 -1656.02 0 0 11653.4\n12.72 -1598.11 0 0 11653.4\n12.73 -1569.49 0 0 11653.4\n12.74 -1571.66 0 0 11653.4\n12.75 -1605.05 0 0 11653.4\n12.76 -1669.04 0 0 11653.4\n12.77 -1761.91 0 0 11653.4\n12.78 -1880.91 0 0 11653.4\n12.79 -2022.3 0 0 11653.4\n12.8 -2181.55 0 0 11653.4\n12.81 -2353.38 0 0 11653.4\n12.82 -2532.04 0 0 11653.4\n12.83 -2711.42 0 0 11653.4\n12.84 -2885.3 0 0 11653.4\n12.85 -3047.56 0 0 11653.4\n12.86 -3192.4 0 0 11653.4\n12.87 -3314.51 0 0 11653.4\n12.88 -3409.3 0 0 11653.4\n12.89 -3473.04 0 0 11653.4\n12.9 -3502.97 0 0 11653.4\n12.91 -3497.43 0 0 11653.4\n12.92 -3455.93 0 0 11653.4\n12.93 -3379.11 0 0 11653.4\n12.94 -3268.77 0 0 11653.4\n12.95 -3127.79 0 0 11653.4\n12.96 -2960.04 0 0 11653.4\n12.97 -2770.2 0 0 11653.4\n12.98 -2563.68 0 0 11653.4\n12.99 -2346.34 0 0 11653.4\n13 -2124.35 0 0 11653.4\n13.01 -1903.95 0 0 11653.4\n13.02 -1691.25 0 0 11653.4\n13.03 -1492.02 0 0 11653.4\n13.04 -1311.5 0 0 11653.4\n13.05 -1154.21 0 0 11653.4\n13.06 -1023.82 0 0 11653.4\n13.07 -923.054 0 0 11653.4\n13.08 -853.573 0 0 11653.4\n13.09 -815.96 0 0 11653.4\n13.1 -809.709 0 0 11653.4\n13.11 -833.259 0 0 11653.4\n13.12 -884.069 0 0 11653.4\n13.13 -958.716 0 0 11653.4\n13.14 -1053.03 0 0 11653.4\n13.15 -1162.25 0 0 11653.4\n13.16 -1281.19 0 0 11653.4\n13.17 -1404.42 0 0 11653.4\n13.18 -1526.48 0 0 11653.4\n13.19 -1642.02 0 0 11653.4\n13.2 -1746 0 0 11653.4\n13.21 -1833.84 0 0 11653.4\n13.22 -1901.57 0 0 11653.4\n13.23 -1945.93 0 0 11653.4\n13.24 -1964.45 0 0 11653.4\n13.25 -1955.54 0 0 11653.4\n13.26 -1918.44 0 0 11653.4\n13.27 -1853.32 0 0 11653.4\n13.28 -1761.14 0 0 11653.4\n13.29 -1643.66 0 0 11653.4\n13.3 -1503.29 0 0 11653.4\n13.31 -1343.06 0 0 11653.4\n13.32 -1166.43 0 0 11653.4\n13.33 -977.209 0 0 11653.4\n13.34 -779.384 0 0 11653.4\n13.35 -577.014 0 0 11653.4\n13.36 -374.085 0 0 11653.4\n13.37 -174.405 0 0 11653.4\n13.38 18.5139 0 0 11653.4\n13.39 201.531 0 0 11653.4\n13.4 371.956 0 0 11653.4\n13.41 527.589 0 0 11653.4\n13.42 666.758 0 0 11653.4\n13.43 788.321 0 0 11653.4\n13.44 891.658 0 0 11653.4\n13.45 976.645 0 0 11653.4\n13.46 1043.61 0 0 11653.4\n13.47 1093.3 0 0 11653.4\n13.48 1126.77 0 0 11653.4\n13.49 1145.38 0 0 11653.4\n13.5 1150.69 0 0 11653.4\n13.51 1144.4 0 0 11653.4\n13.52 1128.31 0 0 11653.4\n13.53 1104.23 0 0 11653.4\n13.54 1073.95 0 0 11653.4\n13.55 1039.21 0 0 11653.4\n13.56 1001.66 0 0 11653.4\n13.57 962.829 0 0 11653.4\n13.58 924.15 0 0 11653.4\n13.59 886.921 0 0 11653.4\n13.6 852.323 0 0 11653.4\n13.61 821.427 0 0 11653.4\n13.62 795.199 0 0 11653.4\n13.63 774.516 0 0 11653.4\n13.64 760.175 0 0 11653.4\n13.65 752.895 0 0 11653.4\n13.66 753.324 0 0 11653.4\n13.67 762.037 0 0 11653.4\n13.68 779.529 0 0 11653.4\n13.69 806.203 0 0 11653.4\n13.7 842.359 0 0 11653.4\n13.71 888.167 0 0 11653.4\n13.72 943.654 0 0 11653.4\n13.73 1008.68 0 0 11653.4\n13.74 1082.92 0 0 11653.4\n13.75 1165.85 0 0 11653.4\n13.76 1256.73 0 0 11653.4\n13.77 1354.63 0 0 11653.4\n13.78 1458.37 0 0 11653.4\n13.79 1566.64 0 0 11653.4\n13.8 1677.91 0 0 11653.4\n13.81 1790.57 0 0 11653.4\n13.82 1902.89 0 0 11653.4\n13.83 2013.15 0 0 11653.4\n13.84 2119.63 0 0 11653.4\n13.85 2220.73 0 0 11653.4\n13.86 2314.99 0 0 11653.4\n13.87 2401.18 0 0 11653.4\n13.88 2478.36 0 0 11653.4\n13.89 2545.91 0 0 11653.4\n13.9 2603.58 0 0 11653.4\n13.91 2651.5 0 0 11653.4\n13.92 2690.22 0 0 11653.4\n13.93 2720.66 0 0 11653.4\n13.94 2744.11 0 0 11653.4\n13.95 2762.18 0 0 11653.4\n13.96 2776.73 0 0 11653.4\n13.97 2789.79 0 0 11653.4\n13.98 2803.47 0 0 11653.4\n13.99 2819.88 0 0 11653.4\n14 2840.99 0 0 11653.4\n14.01 2868.57 0 0 11653.4\n14.02 2904.03 0 0 11653.4\n14.03 2948.39 0 0 11653.4\n14.04 3002.13 0 0 11653.4\n14.05 3065.22 0 0 11653.4\n14.06 3137.01 0 0 11653.4\n14.07 3216.22 0 0 11653.4\n14.08 3301 0 0 11653.4\n14.09 3388.94 0 0 11653.4\n14.1 3477.13 0 0 11653.4\n14.11 3562.29 0 0 11653.4\n14.12 3640.84 0 0 11653.4\n14.13 3709.09 0 0 11653.4\n14.14 3763.35 0 0 11653.4\n14.15 3800.11 0 0 11653.4\n14.16 3816.2 0 0 11653.4\n14.17 3808.94 0 0 11653.4\n14.18 3776.32 0 0 11653.4\n14.19 3717.05 0 0 11653.4\n14.2 3630.76 0 0 11653.4\n14.21 3517.99 0 0 11653.4\n14.22 3380.27 0 0 11653.4\n14.23 3220.11 0 0 11653.4\n14.24 3040.95 0 0 11653.4\n14.25 2847.08 0 0 11653.4\n14.26 2643.53 0 0 11653.4\n14.27 2435.91 0 0 11653.4\n14.28 2230.21 0 0 11653.4\n14.29 2032.6 0 0 11653.4\n14.3 1849.22 0 0 11653.4\n14.31 1685.9 0 0 11653.4\n14.32 1547.98 0 0 11653.4\n14.33 1440.04 0 0 11653.4\n14.34 1365.72 0 0 11653.4\n14.35 1327.53 0 0 11653.4\n14.36 1326.72 0 0 11653.4\n14.37 1363.18 0 0 11653.4\n14.38 1435.39 0 0 11653.4\n14.39 1540.43 0 0 11653.4\n14.4 1674.01 0 0 11653.4\n14.41 1830.63 0 0 11653.4\n14.42 2003.71 0 0 11653.4\n14.43 2185.8 0 0 11653.4\n14.44 2368.83 0 0 11653.4\n14.45 2544.37 0 0 11653.4\n14.46 2703.98 0 0 11653.4\n14.47 2839.46 0 0 11653.4\n14.48 2943.19 0 0 11653.4\n14.49 3008.41 0 0 11653.4\n14.5 3029.48 0 0 11653.4\n14.51 3002.15 0 0 11653.4\n14.52 2923.7 0 0 11653.4\n14.53 2793.1 0 0 11653.4\n14.54 2611.07 0 0 11653.4\n14.55 2380.12 0 0 11653.4\n14.56 2104.43 0 0 11653.4\n14.57 1789.8 0 0 11653.4\n14.58 1443.42 0 0 11653.4\n14.59 1073.65 0 0 11653.4\n14.6 689.737 0 0 11653.4\n14.61 301.486 0 0 11653.4\n14.62 -81.0806 0 0 11653.4\n14.63 -448.081 0 0 11653.4\n14.64 -790.135 0 0 11653.4\n14.65 -1098.71 0 0 11653.4\n14.66 -1366.42 0 0 11653.4\n14.67 -1587.34 0 0 11653.4\n14.68 -1757.16 0 0 11653.4\n14.69 -1873.42 0 0 11653.4\n14.7 -1935.58 0 0 11653.4\n14.71 -1945 0 0 11653.4\n14.72 -1904.99 0 0 11653.4\n14.73 -1820.58 0 0 11653.4\n14.74 -1698.42 0 0 11653.4\n14.75 -1546.47 0 0 11653.4\n14.76 -1373.76 0 0 11653.4\n14.77 -1190 0 0 11653.4\n14.78 -1005.24 0 0 11653.4\n14.79 -829.473 0 0 11653.4\n14.8 -672.29 0 0 11653.4\n14.81 -542.482 0 0 11653.4\n14.82 -447.725 0 0 11653.4\n14.83 -394.291 0 0 11653.4\n14.84 -386.809 0 0 11653.4\n14.85 -428.1 0 0 11653.4\n14.86 -519.071 0 0 11653.4\n14.87 -658.691 0 0 11653.4\n14.88 -844.04 0 0 11653.4\n14.89 -1070.43 0 0 11653.4\n14.9 -1331.6 0 0 11653.4\n14.91 -1619.97 0 0 11653.4\n14.92 -1926.92 0 0 11653.4\n14.93 -2243.17 0 0 11653.4\n14.94 -2559.11 0 0 11653.4\n14.95 -2865.2 0 0 11653.4\n14.96 -3152.36 0 0 11653.4\n14.97 -3412.26 0 0 11653.4\n14.98 -3637.71 0 0 11653.4\n14.99 -3822.92 0 0 11653.4\n15 -3963.67 0 0 11653.4\n15.01 -4057.53 0 0 11653.4\n15.02 -4103.92 0 0 11653.4\n15.03 -4104.09 0 0 11653.4\n15.04 -4061.07 0 0 11653.4\n15.05 -3979.58 0 0 11653.4\n15.06 -3865.74 0 0 11653.4\n15.07 -3726.89 0 0 11653.4\n15.08 -3571.24 0 0 11653.4\n15.09 -3407.54 0 0 11653.4\n15.1 -3244.73 0 0 11653.4\n15.11 -3091.57 0 0 11653.4\n15.12 -2956.27 0 0 11653.4\n15.13 -2846.21 0 0 11653.4\n15.14 -2767.58 0 0 11653.4\n15.15 -2725.19 0 0 11653.4\n15.16 -2722.26 0 0 11653.4\n15.17 -2760.3 0 0 11653.4\n15.18 -2839.08 0 0 11653.4\n15.19 -2956.63 0 0 11653.4\n15.2 -3109.35 0 0 11653.4\n15.21 -3292.17 0 0 11653.4\n15.22 -3498.75 0 0 11653.4\n15.23 -3721.79 0 0 11653.4\n15.24 -3953.29 0 0 11653.4\n15.25 -4184.9 0 0 11653.4\n15.26 -4408.29 0 0 11653.4\n15.27 -4615.45 0 0 11653.4\n15.28 -4799.04 0 0 11653.4\n15.29 -4952.68 0 0 11653.4\n15.3 -5071.2 0 0 11653.4\n15.31 -5150.83 0 0 11653.4\n15.32 -5189.34 0 0 11653.4\n15.33 -5186.14 0 0 11653.4\n15.34 -5142.25 0 0 11653.4\n15.35 -5060.26 0 0 11653.4\n15.36 -4944.19 0 0 11653.4\n15.37 -4799.3 0 0 11653.4\n15.38 -4631.89 0 0 11653.4\n15.39 -4448.97 0 0 11653.4\n15.4 -4258.01 0 0 11653.4\n15.41 -4066.57 0 0 11653.4\n15.42 -3882.05 0 0 11653.4\n15.43 -3711.29 0 0 11653.4\n15.44 -3560.39 0 0 11653.4\n15.45 -3434.38 0 0 11653.4\n15.46 -3337.07 0 0 11653.4\n15.47 -3270.92 0 0 11653.4\n15.48 -3236.9 0 0 11653.4\n15.49 -3234.55 0 0 11653.4\n15.5 -3261.97 0 0 11653.4\n15.51 -3315.93 0 0 11653.4\n15.52 -3392.08 0 0 11653.4\n15.53 -3485.11 0 0 11653.4\n15.54 -3589.04 0 0 11653.4\n15.55 -3697.45 0 0 11653.4\n15.56 -3803.85 0 0 11653.4\n15.57 -3901.88 0 0 11653.4\n15.58 -3985.68 0 0 11653.4\n15.59 -4050.07 0 0 11653.4\n15.6 -4090.86 0 0 11653.4\n15.61 -4104.95 0 0 11653.4\n15.62 -4090.52 0 0 11653.4\n15.63 -4047.06 0 0 11653.4\n15.64 -3975.41 0 0 11653.4\n15.65 -3877.69 0 0 11653.4\n15.66 -3757.18 0 0 11653.4\n15.67 -3618.19 0 0 11653.4\n15.68 -3465.84 0 0 11653.4\n15.69 -3305.81 0 0 11653.4\n15.7 -3144.07 0 0 11653.4\n15.71 -2986.62 0 0 11653.4\n15.72 -2839.18 0 0 11653.4\n15.73 -2706.95 0 0 11653.4\n15.74 -2594.32 0 0 11653.4\n15.75 -2504.74 0 0 11653.4\n15.76 -2440.45 0 0 11653.4\n15.77 -2402.48 0 0 11653.4\n15.78 -2390.51 0 0 11653.4\n15.79 -2402.9 0 0 11653.4\n15.8 -2436.78 0 0 11653.4\n15.81 -2488.15 0 0 11653.4\n15.82 -2552.06 0 0 11653.4\n15.83 -2622.8 0 0 11653.4\n15.84 -2694.22 0 0 11653.4\n15.85 -2759.93 0 0 11653.4\n15.86 -2813.62 0 0 11653.4\n15.87 -2849.37 0 0 11653.4\n15.88 -2861.88 0 0 11653.4\n15.89 -2846.73 0 0 11653.4\n15.9 -2800.58 0 0 11653.4\n15.91 -2721.36 0 0 11653.4\n15.92 -2608.34 0 0 11653.4\n15.93 -2462.19 0 0 11653.4\n15.94 -2284.97 0 0 11653.4\n15.95 -2080.07 0 0 11653.4\n15.96 -1852.03 0 0 11653.4\n15.97 -1606.41 0 0 11653.4\n15.98 -1349.53 0 0 11653.4\n15.99 -1088.2 0 0 11653.4\n16 -829.481 0 0 11653.4\n16.01 -580.31 0 0 11653.4\n16.02 -347.268 0 0 11653.4\n16.03 -136.273 0 0 11653.4\n16.04 47.667 0 0 11653.4\n16.05 200.671 0 0 11653.4\n16.06 320.146 0 0 11653.4\n16.07 404.904 0 0 11653.4\n16.08 455.205 0 0 11653.4\n16.09 472.747 0 0 11653.4\n16.1 460.592 0 0 11653.4\n16.11 423.027 0 0 11653.4\n16.12 365.378 0 0 11653.4\n16.13 293.778 0 0 11653.4\n16.14 214.892 0 0 11653.4\n16.15 135.631 0 0 11653.4\n16.16 62.8403 0 0 11653.4\n16.17 3.00694 0 0 11653.4\n16.18 -38.0321 0 0 11653.4\n16.19 -55.3447 0 0 11653.4\n16.2 -45.1216 0 0 11653.4\n16.21 -4.84439 0 0 11653.4\n16.22 66.6027 0 0 11653.4\n16.23 168.884 0 0 11653.4\n16.24 300.226 0 0 11653.4\n16.25 457.498 0 0 11653.4\n16.26 636.351 0 0 11653.4\n16.27 831.409 0 0 11653.4\n16.28 1036.51 0 0 11653.4\n16.29 1245 0 0 11653.4\n16.3 1449.98 0 0 11653.4\n16.31 1644.7 0 0 11653.4\n16.32 1822.78 0 0 11653.4\n16.33 1978.56 0 0 11653.4\n16.34 2107.35 0 0 11653.4\n16.35 2205.64 0 0 11653.4\n16.36 2271.25 0 0 11653.4\n16.37 2303.49 0 0 11653.4\n16.38 2303.17 0 0 11653.4\n16.39 2272.6 0 0 11653.4\n16.4 2215.48 0 0 11653.4\n16.41 2136.77 0 0 11653.4\n16.42 2042.47 0 0 11653.4\n16.43 1939.4 0 0 11653.4\n16.44 1834.86 0 0 11653.4\n16.45 1736.34 0 0 11653.4\n16.46 1651.21 0 0 11653.4\n16.47 1586.37 0 0 11653.4\n16.48 1547.94 0 0 11653.4\n16.49 1541 0 0 11653.4\n16.5 1569.36 0 0 11653.4\n16.51 1635.36 0 0 11653.4\n16.52 1739.75 0 0 11653.4\n16.53 1881.68 0 0 11653.4\n16.54 2058.64 0 0 11653.4\n16.55 2266.62 0 0 11653.4\n16.56 2500.24 0 0 11653.4\n16.57 2752.92 0 0 11653.4\n16.58 3017.19 0 0 11653.4\n16.59 3285 0 0 11653.4\n16.6 3548.01 0 0 11653.4\n16.61 3797.95 0 0 11653.4\n16.62 4026.97 0 0 11653.4\n16.63 4227.98 0 0 11653.4\n16.64 4394.91 0 0 11653.4\n16.65 4522.99 0 0 11653.4\n16.66 4608.95 0 0 11653.4\n16.67 4651.17 0 0 11653.4\n16.68 4649.71 0 0 11653.4\n16.69 4606.35 0 0 11653.4\n16.7 4524.51 0 0 11653.4\n16.71 4409.1 0 0 11653.4\n16.72 4266.32 0 0 11653.4\n16.73 4103.42 0 0 11653.4\n16.74 3928.35 0 0 11653.4\n16.75 3749.51 0 0 11653.4\n16.76 3575.32 0 0 11653.4\n16.77 3413.93 0 0 11653.4\n16.78 3272.86 0 0 11653.4\n16.79 3158.69 0 0 11653.4\n16.8 3076.8 0 0 11653.4\n16.81 3031.18 0 0 11653.4\n16.82 3024.21 0 0 11653.4\n16.83 3056.66 0 0 11653.4\n16.84 3127.59 0 0 11653.4\n16.85 3234.49 0 0 11653.4\n16.86 3373.33 0 0 11653.4\n16.87 3538.79 0 0 11653.4\n16.88 3724.52 0 0 11653.4\n16.89 3923.38 0 0 11653.4\n16.9 4127.8 0 0 11653.4\n16.91 4330.1 0 0 11653.4\n16.92 4522.83 0 0 11653.4\n16.93 4699.11 0 0 11653.4\n16.94 4852.94 0 0 11653.4\n16.95 4979.41 0 0 11653.4\n16.96 5074.99 0 0 11653.4\n16.97 5137.62 0 0 11653.4\n16.98 5166.82 0 0 11653.4\n16.99 5163.7 0 0 11653.4\n17 5130.92 0 0 11653.4\n17.01 5072.51 0 0 11653.4\n17.02 4993.77 0 0 11653.4\n17.03 4900.94 0 0 11653.4\n17.04 4800.96 0 0 11653.4\n17.05 4701.17 0 0 11653.4\n17.06 4608.91 0 0 11653.4\n17.07 4531.26 0 0 11653.4\n17.08 4474.64 0 0 11653.4\n17.09 4444.59 0 0 11653.4\n17.1 4445.46 0 0 11653.4\n17.11 4480.21 0 0 11653.4\n17.12 4550.3 0 0 11653.4\n17.13 4655.56 0 0 11653.4\n17.14 4794.25 0 0 11653.4\n17.15 4963.06 0 0 11653.4\n17.16 5157.31 0 0 11653.4\n17.17 5371.1 0 0 11653.4\n17.18 5597.56 0 0 11653.4\n17.19 5829.21 0 0 11653.4\n17.2 6058.21 0 0 11653.4\n17.21 6276.74 0 0 11653.4\n17.22 6477.37 0 0 11653.4\n17.23 6653.33 0 0 11653.4\n17.24 6798.86 0 0 11653.4\n17.25 6909.46 0 0 11653.4\n17.26 6982.07 0 0 11653.4\n17.27 7015.24 0 0 11653.4\n17.28 7009.22 0 0 11653.4\n17.29 6965.88 0 0 11653.4\n17.3 6888.73 0 0 11653.4\n17.31 6782.71 0 0 11653.4\n17.32 6654.01 0 0 11653.4\n17.33 6509.79 0 0 11653.4\n17.34 6357.86 0 0 11653.4\n17.35 6206.37 0 0 11653.4\n17.36 6063.4 0 0 11653.4\n17.37 5936.64 0 0 11653.4\n17.38 5833.03 0 0 11653.4\n17.39 5758.45 0 0 11653.4\n17.4 5717.45 0 0 11653.4\n17.41 5713.02 0 0 11653.4\n17.42 5746.44 0 0 11653.4\n17.43 5817.25 0 0 11653.4\n17.44 5923.2 0 0 11653.4\n17.45 6060.34 0 0 11653.4\n17.46 6223.18 0 0 11653.4\n17.47 6404.92 0 0 11653.4\n17.48 6597.72 0 0 11653.4\n17.49 6793 0 0 11653.4\n17.5 6981.85 0 0 11653.4\n17.51 7155.4 0 0 11653.4\n17.52 7305.13 0 0 11653.4\n17.53 7423.35 0 0 11653.4\n17.54 7503.45 0 0 11653.4\n17.55 7540.2 0 0 11653.4\n17.56 7530.04 0 0 11653.4\n17.57 7471.15 0 0 11653.4\n17.58 7363.65 0 0 11653.4\n17.59 7209.5 0 0 11653.4\n17.6 7012.5 0 0 11653.4\n17.61 6778.14 0 0 11653.4\n17.62 6513.31 0 0 11653.4\n17.63 6226.12 0 0 11653.4\n17.64 5925.47 0 0 11653.4\n17.65 5620.74 0 0 11653.4\n17.66 5321.38 0 0 11653.4\n17.67 5036.49 0 0 11653.4\n17.68 4774.49 0 0 11653.4\n17.69 4542.73 0 0 11653.4\n17.7 4347.18 0 0 11653.4\n17.71 4192.2 0 0 11653.4\n17.72 4080.32 0 0 11653.4\n17.73 4012.21 0 0 11653.4\n17.74 3986.57 0 0 11653.4\n17.75 4000.26 0 0 11653.4\n17.76 4048.38 0 0 11653.4\n17.77 4124.56 0 0 11653.4\n17.78 4221.17 0 0 11653.4\n17.79 4329.7 0 0 11653.4\n17.8 4441.1 0 0 11653.4\n17.81 4546.23 0 0 11653.4\n17.82 4636.2 0 0 11653.4\n17.83 4702.82 0 0 11653.4\n17.84 4738.91 0 0 11653.4\n17.85 4738.67 0 0 11653.4\n17.86 4697.91 0 0 11653.4\n17.87 4614.25 0 0 11653.4\n17.88 4487.23 0 0 11653.4\n17.89 4318.34 0 0 11653.4\n17.9 4110.96 0 0 11653.4\n17.91 3870.24 0 0 11653.4\n17.92 3602.85 0 0 11653.4\n17.93 3316.7 0 0 11653.4\n17.94 3020.63 0 0 11653.4\n17.95 2723.97 0 0 11653.4\n17.96 2436.18 0 0 11653.4\n17.97 2166.41 0 0 11653.4\n17.98 1923.05 0 0 11653.4\n17.99 1713.45 0 0 11653.4\n18 1543.49 0 0 11653.4\n18.01 1417.33 0 0 11653.4\n18.02 1337.24 0 0 11653.4\n18.03 1303.42 0 0 11653.4\n18.04 1314.04 0 0 11653.4\n18.05 1365.2 0 0 11653.4\n18.06 1451.16 0 0 11653.4\n18.07 1564.51 0 0 11653.4\n18.08 1696.51 0 0 11653.4\n18.09 1837.41 0 0 11653.4\n18.1 1976.88 0 0 11653.4\n18.11 2104.46 0 0 11653.4\n18.12 2209.97 0 0 11653.4\n18.13 2284.02 0 0 11653.4\n18.14 2318.33 0 0 11653.4\n18.15 2306.2 0 0 11653.4\n18.16 2242.75 0 0 11653.4\n18.17 2125.18 0 0 11653.4\n18.18 1952.94 0 0 11653.4\n18.19 1727.77 0 0 11653.4\n18.2 1453.66 0 0 11653.4\n18.21 1136.76 0 0 11653.4\n18.22 785.087 0 0 11653.4\n18.23 408.306 0 0 11653.4\n18.24 17.3 0 0 11653.4\n18.25 -376.231 0 0 11653.4\n18.26 -760.244 0 0 11653.4\n18.27 -1122.84 0 0 11653.4\n18.28 -1452.72 0 0 11653.4\n18.29 -1739.72 0 0 11653.4\n18.3 -1975.13 0 0 11653.4\n18.31 -2152.17 0 0 11653.4\n18.32 -2266.2 0 0 11653.4\n18.33 -2314.98 0 0 11653.4\n18.34 -2298.75 0 0 11653.4\n18.35 -2220.3 0 0 11653.4\n18.36 -2084.82 0 0 11653.4\n18.37 -1899.76 0 0 11653.4\n18.38 -1674.56 0 0 11653.4\n18.39 -1420.26 0 0 11653.4\n18.4 -1149.12 0 0 11653.4\n18.41 -874.14 0 0 11653.4\n18.42 -608.556 0 0 11653.4\n18.43 -365.325 0 0 11653.4\n18.44 -156.631 0 0 11653.4\n18.45 6.5947 0 0 11653.4\n18.46 115.092 0 0 11653.4\n18.47 161.637 0 0 11653.4\n18.48 141.321 0 0 11653.4\n18.49 51.7431 0 0 11653.4\n18.5 -106.9 0 0 11653.4\n18.51 -331.821 0 0 11653.4\n18.52 -617.751 0 0 11653.4\n18.53 -957.147 0 0 11653.4\n18.54 -1340.49 0 0 11653.4\n18.55 -1756.63 0 0 11653.4\n18.56 -2193.27 0 0 11653.4\n18.57 -2637.39 0 0 11653.4\n18.58 -3075.76 0 0 11653.4\n18.59 -3495.46 0 0 11653.4\n18.6 -3884.37 0 0 11653.4\n18.61 -4231.6 0 0 11653.4\n18.62 -4527.93 0 0 11653.4\n18.63 -4766.13 0 0 11653.4\n18.64 -4941.21 0 0 11653.4\n18.65 -5050.61 0 0 11653.4\n18.66 -5094.26 0 0 11653.4\n18.67 -5074.55 0 0 11653.4\n18.68 -4996.22 0 0 11653.4\n18.69 -4866.15 0 0 11653.4\n18.7 -4693.06 0 0 11653.4\n18.71 -4487.17 0 0 11653.4\n18.72 -4259.77 0 0 11653.4\n18.73 -4022.79 0 0 11653.4\n18.74 -3788.29 0 0 11653.4\n18.75 -3568.06 0 0 11653.4\n18.76 -3373.12 0 0 11653.4\n18.77 -3213.32 0 0 11653.4\n18.78 -3097.01 0 0 11653.4\n18.79 -3030.69 0 0 11653.4\n18.8 -3018.83 0 0 11653.4\n18.81 -3063.72 0 0 11653.4\n18.82 -3165.45 0 0 11653.4\n18.83 -3321.89 0 0 11653.4\n18.84 -3528.87 0 0 11653.4\n18.85 -3780.35 0 0 11653.4\n18.86 -4068.7 0 0 11653.4\n18.87 -4385.04 0 0 11653.4\n18.88 -4719.58 0 0 11653.4\n18.89 -5062.05 0 0 11653.4\n18.9 -5402.09 0 0 11653.4\n18.91 -5729.65 0 0 11653.4\n18.92 -6035.4 0 0 11653.4\n18.93 -6311.02 0 0 11653.4\n18.94 -6549.56 0 0 11653.4\n18.95 -6745.62 0 0 11653.4\n18.96 -6895.57 0 0 11653.4\n18.97 -6997.59 0 0 11653.4\n18.98 -7051.75 0 0 11653.4\n18.99 -7059.89 0 0 11653.4\n19 -7025.57 0 0 11653.4\n19.01 -6953.81 0 0 11653.4\n19.02 -6850.9 0 0 11653.4\n19.03 -6724.11 0 0 11653.4\n19.04 -6581.35 0 0 11653.4\n19.05 -6430.86 0 0 11653.4\n19.06 -6280.88 0 0 11653.4\n19.07 -6139.3 0 0 11653.4\n19.08 -6013.41 0 0 11653.4\n19.09 -5909.57 0 0 11653.4\n19.1 -5833.05 0 0 11653.4\n19.11 -5787.81 0 0 11653.4\n19.12 -5776.44 0 0 11653.4\n19.13 -5800.06 0 0 11653.4\n19.14 -5858.34 0 0 11653.4\n19.15 -5949.59 0 0 11653.4\n19.16 -6070.85 0 0 11653.4\n19.17 -6218.05 0 0 11653.4\n19.18 -6386.23 0 0 11653.4\n19.19 -6569.75 0 0 11653.4\n19.2 -6762.56 0 0 11653.4\n19.21 -6958.4 0 0 11653.4\n19.22 -7151.1 0 0 11653.4\n19.23 -7334.79 0 0 11653.4\n19.24 -7504.11 0 0 11653.4\n19.25 -7654.38 0 0 11653.4\n19.26 -7781.76 0 0 11653.4\n19.27 -7883.34 0 0 11653.4\n19.28 -7957.17 0 0 11653.4\n19.29 -8002.34 0 0 11653.4\n19.3 -8018.88 0 0 11653.4\n19.31 -8007.73 0 0 11653.4\n19.32 -7970.65 0 0 11653.4\n19.33 -7910.05 0 0 11653.4\n19.34 -7828.9 0 0 11653.4\n19.35 -7730.54 0 0 11653.4\n19.36 -7618.5 0 0 11653.4\n19.37 -7496.39 0 0 11653.4\n19.38 -7367.73 0 0 11653.4\n19.39 -7235.81 0 0 11653.4\n19.4 -7103.58 0 0 11653.4\n19.41 -6973.61 0 0 11653.4\n19.42 -6847.96 0 0 11653.4\n19.43 -6728.22 0 0 11653.4\n19.44 -6615.48 0 0 11653.4\n19.45 -6510.36 0 0 11653.4\n19.46 -6413.05 0 0 11653.4\n19.47 -6323.38 0 0 11653.4\n19.48 -6240.9 0 0 11653.4\n19.49 -6164.97 0 0 11653.4\n19.5 -6094.82 0 0 11653.4\n19.51 -6029.64 0 0 11653.4\n19.52 -5968.68 0 0 11653.4\n19.53 -5911.26 0 0 11653.4\n19.54 -5856.84 0 0 11653.4\n19.55 -5805.05 0 0 11653.4\n19.56 -5755.67 0 0 11653.4\n19.57 -5708.63 0 0 11653.4\n19.58 -5663.99 0 0 11653.4\n19.59 -5621.85 0 0 11653.4\n19.6 -5582.34 0 0 11653.4\n19.61 -5545.55 0 0 11653.4\n19.62 -5511.44 0 0 11653.4\n19.63 -5479.79 0 0 11653.4\n19.64 -5450.17 0 0 11653.4\n19.65 -5421.84 0 0 11653.4\n19.66 -5393.8 0 0 11653.4\n19.67 -5364.75 0 0 11653.4\n19.68 -5333.07 0 0 11653.4\n19.69 -5296.92 0 0 11653.4\n19.7 -5254.27 0 0 11653.4\n19.71 -5202.97 0 0 11653.4\n19.72 -5140.85 0 0 11653.4\n19.73 -5065.84 0 0 11653.4\n19.74 -4976.03 0 0 11653.4\n19.75 -4869.85 0 0 11653.4\n19.76 -4746.15 0 0 11653.4\n19.77 -4604.26 0 0 11653.4\n19.78 -4444.13 0 0 11653.4\n19.79 -4266.32 0 0 11653.4\n19.8 -4072.09 0 0 11653.4\n19.81 -3863.38 0 0 11653.4\n19.82 -3642.76 0 0 11653.4\n19.83 -3413.38 0 0 11653.4\n19.84 -3178.89 0 0 11653.4\n19.85 -2943.31 0 0 11653.4\n19.86 -2710.89 0 0 11653.4\n19.87 -2485.95 0 0 11653.4\n19.88 -2272.7 0 0 11653.4\n19.89 -2075.1 0 0 11653.4\n19.9 -1896.62 0 0 11653.4\n19.91 -1740.17 0 0 11653.4\n19.92 -1607.88 0 0 11653.4\n19.93 -1501.07 0 0 11653.4\n19.94 -1420.09 0 0 11653.4\n19.95 -1364.33 0 0 11653.4\n19.96 -1332.23 0 0 11653.4\n19.97 -1321.27 0 0 11653.4\n19.98 -1328.11 0 0 11653.4\n19.99 -1348.67 0 0 11653.4\n##### Results\nextraction_type='extract'\n### ModelCluster\npeak_funcs=[0]\nModelEvaluator=AIC\nslice=slice(None, 42, None)\n# BaselineObject\nowner=0\npars=[]\nfree=[]\nremovable=False\nstatic_owner=False\n\n## ModelPeaks\n# ModelPeak\nowner=1\npars=[1.4411217432667585, -1.2282767016422369, 35672.566370515298]\nfree=[True, True, True]\nremovable=True\nstatic_owner=False\n\n# ModelPeak\nowner=1\npars=[2.436507254824003, -0.95002824111153772, 76760.442400404238]\nfree=[True, True, True]\nremovable=True\nstatic_owner=False\n\n# ModelPeak\nowner=1\npars=[2.8484929185359706, -1.4139164089642899, 20977.392518071541]\nfree=[True, True, True]\nremovable=True\nstatic_owner=False\n\n# ModelPeak\nowner=1\npars=[3.6079146063935967, -1.0458729659040134, 70857.659953234281]\nfree=[True, True, True]\nremovable=True\nstatic_owner=False\n\n# ModelPeak\nowner=1\npars=[4.1172826174060697, -1.2394949965505404, 48593.78276164383]\nfree=[True, True, True]\nremovable=True\nstatic_owner=False\n\n# ModelPeak\nowner=1\npars=[4.5567335410395335, -0.65650815361812054, 97579.098886781183]\nfree=[True, True, True]\nremovable=True\nstatic_owner=False\n\n# ModelPeak\nowner=1\npars=[5.5480942497488588, 1.5707962974516079, 213977.85523421105]\nfree=[True, True, True]\nremovable=True\nstatic_owner=False\n\n# ModelPeak\nowner=1\npars=[6.1220683839086636, -1.2516585266229716, 53856.693764559597]\nfree=[True, True, True]\nremovable=True\nstatic_owner=False\n\n# ModelPeak\nowner=1\npars=[6.7097115536727108, 0.32788471388605117, 192698.4112533092]\nfree=[True, True, True]\nremovable=True\nstatic_owner=False\n\n### start data\n#L r y dy\n1 -19503 11653.4\n1.15136 -22868.6 11653.4\n1.30273 7347.69 11653.4\n1.45409 116362 11653.4\n1.60545 -25731.2 11653.4\n1.75682 -17869 11653.4\n1.90818 -26992.4 11653.4\n2.05955 -21914.4 11653.4\n2.21091 -29320.7 11653.4\n2.36227 68850.3 11653.4\n2.51364 62647.1 11653.4\n2.665 -41988 11653.4\n2.81636 5958.01 11653.4\n2.96773 -26664.4 11653.4\n3.11909 -47447.8 11653.4\n3.27045 -40608.7 11653.4\n3.42182 -33482.5 11653.4\n3.57318 46177.4 11653.4\n3.72455 6258.3 11653.4\n3.87591 -34865.6 11653.4\n4.02727 3181.68 11653.4\n4.17864 17383.9 11653.4\n4.33 -37648.2 11653.4\n4.48136 36038.7 11653.4\n4.63273 9373.63 11653.4\n4.78409 -3416.88 11653.4\n4.93545 -20978.7 11653.4\n5.08682 -15438.8 11653.4\n5.23818 -4925.81 11653.4\n5.38955 29373.9 11653.4\n5.54091 17226.4 11653.4\n5.69227 4825.66 11653.4\n5.84364 12803.3 11653.4\n5.995 5173.08 11653.4\n6.14636 29744.6 11653.4\n6.29773 -14075.9 11653.4\n6.44909 -1677.03 11653.4\n6.60045 28638.8 11653.4\n6.75182 20875.1 11653.4\n6.90318 3855.57 11653.4\n7.05455 5465.75 11653.4\n7.20591 -14906 11653.4\n\n"
p1364
a.